Turbo Assembler	 Version 4.1	    12/29/24 23:45:51	    Page 1
PODFS.ASM



      1	0000			     .MODEL SMALL
      2	0000			     .STACK  00100h
      3
      4	0000			     .DATA
      5	0000  24 24 24 24 24 24	24+	 db  024h, 024h, 024h, 024h, 024h, 024h, 024h, 024h, 024h, 024h, 024h, 024h, 024h, 024h,    +
      6	      24 24 24 24 24 24	24+  024h, 024h
      7	      24 24
      8	0010  24 24 24 24 24 24	24+	 db  024h, 024h, 024h, 024h, 024h, 024h, 024h, 024h, 024h, 024h, 024h, 024h, 024h, 024h,    +
      9	      24 24 24 24 24 24	24+  024h, 024h
     10	      24 24
     11	0020  24 24 24 24 24 24	24+	 db  024h, 024h, 024h, 024h, 024h, 024h, 024h, 024h, 024h, 024h, 024h, 024h, 024h, 024h,    +
     12	      24 24 24 24 24 24	24+  024h, 024h
     13	      24 24
     14	0030  24 24 24 24 24 24	24+	 db  024h, 024h, 024h, 024h, 024h, 024h, 024h, 024h, 024h, 024h, 024h, 024h, 024h, 024h,    +
     15	      24 24 24 24 24 24	24+  024h, 024h
     16	      24 24
     17	0040  24 24 24 24 24 24	24+	 db  024h, 024h, 024h, 024h, 024h, 024h, 024h, 024h, 024h, 024h, 024h, 024h, 024h, 024h,    +
     18	      24 24 24 24 24 24	24+  024h, 024h
     19	      24 24
     20	0050  24 24 24 24 24 24	24+	 db  024h, 024h, 024h, 024h, 024h, 024h, 024h, 024h, 024h, 024h, 024h, 024h, 024h, 024h,    +
     21	      24 24 24 24 24 24	24+  024h, 024h
     22	      24 24
     23	0060  24 24 24 24 24 24	24+	 db  024h, 024h, 024h, 024h, 024h, 024h, 024h, 024h, 024h, 024h, 024h, 024h, 024h, 024h,    +
     24	      24 24 24 24 24 24	24+  024h, 024h
     25	      24 24
     26	0070  24 24 24 24 24 24	24+	 db  024h, 024h, 024h, 024h, 024h, 024h, 024h, 024h, 024h, 024h, 024h, 024h, 024h, 024h,    +
     27	      24 24 24 24 24 24	24+  024h, 024h
     28	      24 24
     29	0080  24 24 24 24 24 24	24+	 db  024h, 024h, 024h, 024h, 024h, 024h, 024h, 024h, 024h, 024h, 024h, 024h, 024h, 024h,    +
     30	      24 24 24 24 24 24	24+  024h, 024h
     31	      24 24
     32	0090  24 24 24 24 24 24	24+	 db  024h, 024h, 024h, 024h, 024h, 024h, 024h, 024h, 024h, 024h, 024h, 024h, 024h, 024h,    +
     33	      24 24 24 24 24 24	24+  024h, 024h
     34	      24 24
     35	00A0  24 24 24 24 24 24	24+	 db  024h, 024h, 024h, 024h, 024h, 024h, 024h, 024h, 024h, 024h, 024h, 024h, 024h, 024h,    +
     36	      24 24 24 24 24 24	24+  024h, 024h
     37	      24 24
     38	00B0  24 24 24 24 24 24	24+	 db  024h, 024h, 024h, 024h, 024h, 024h, 024h, 024h, 024h, 024h, 024h, 024h, 024h, 024h,    +
     39	      24 24 24 24 24 24	24+  024h, 024h
     40	      24 24
     41	00C0  24 24 24 24 24 24	24+	 db  024h, 024h, 024h, 024h, 024h, 024h, 024h, 024h, 024h, 024h, 024h, 024h, 024h, 024h,    +
     42	      24 24 24 24 24 24	24+  024h, 024h
     43	      24 24
     44	00D0  24 24 24 24 24 24	24+	 db  024h, 024h, 024h, 024h, 024h, 024h, 024h, 024h, 024h, 024h, 024h, 024h, 024h, 024h,    +
     45	      24 24 24 24 24 24	24+  024h, 024h
     46	      24 24
     47	00E0  24 24 24 24 24 24	24+	 db  024h, 024h, 024h, 024h, 024h, 024h, 024h, 024h, 024h, 024h, 024h, 024h, 024h, 024h,    +
     48	      24 24 24 24 24 24	24+  024h, 024h
     49	      24 24
     50	00F0  24 24 24 24 24 24	24+	 db  024h, 024h, 024h, 024h, 024h, 024h, 024h, 024h, 024h, 024h, 024h, 024h, 024h, 024h,    +
     51	      24 24 24 24 24 24	24+  024h, 024h
     52	      24 24
     53	0100  24 24 24 24 24 24	24+	 db  024h, 024h, 024h, 024h, 024h, 024h, 024h, 024h, 024h, 024h, 024h, 024h, 024h, 024h,    +
     54	      24 24 24 24 24 24	24+  024h, 024h
     55	      24 24
     56	0110  24 24 24 24 24 24	24+	 db  024h, 024h, 024h, 024h, 024h, 024h, 024h, 024h, 024h, 024h, 024h, 024h, 024h, 024h,    +
     57	      24 24 24 24 24 24	24+  024h, 024h
Turbo Assembler	 Version 4.1	    12/29/24 23:45:51	    Page 2
PODFS.ASM



     58	      24 24
     59	0120  24 24 24 24 24 24	24+	 db  024h, 024h, 024h, 024h, 024h, 024h, 024h, 024h, 024h, 024h, 024h, 024h, 024h, 024h,    +
     60	      24 24 24 24 24 24	24+  024h, 024h
     61	      24 24
     62	0130  24 24 24 24 24 24	24+	 db  024h, 024h, 024h, 024h, 024h, 024h, 024h, 024h, 024h, 024h, 024h, 024h, 024h, 024h,    +
     63	      24 24 24 24 24 24	24+  024h, 024h
     64	      24 24
     65	0140  24 24 24 24 24 24	24+	 db  024h, 024h, 024h, 024h, 024h, 024h, 024h, 024h, 024h, 024h, 024h, 024h, 024h, 024h,    +
     66	      24 24 24 24 24 24	24+  024h, 024h
     67	      24 24
     68	0150  24 24 24 24 24 24	24+	 db  024h, 024h, 024h, 024h, 024h, 024h, 024h, 024h, 024h, 024h, 024h, 024h, 024h, 024h,    +
     69	      24 24 24 24 24 24	24+  024h, 024h
     70	      24 24
     71	0160  24 24 24 24 24 24	24+	 db  024h, 024h, 024h, 024h, 024h, 024h, 024h, 024h, 024h, 024h, 024h, 024h, 024h, 024h,    +
     72	      24 24 24 24 24 24	24+  024h, 024h
     73	      24 24
     74	0170  24 24 24 24 24 24	24+	 db  024h, 024h, 024h, 024h, 024h, 024h, 024h, 024h, 024h, 024h, 024h, 024h, 024h, 024h,    +
     75	      24 24 24 24 24 24	24+  024h, 024h
     76	      24 24
     77	0180  24 24 24 24 24 24	24+	 db  024h, 024h, 024h, 024h, 024h, 024h, 024h, 024h, 024h, 024h, 024h, 024h, 024h, 024h,    +
     78	      24 24 24 24 24 24	24+  024h, 024h
     79	      24 24
     80	0190  24 24 24 24 24 24	24+	 db  024h, 024h, 024h, 024h, 024h, 024h, 024h, 024h, 024h, 024h, 024h, 024h, 024h, 024h,    +
     81	      24 24 24 24 24 24	24+  024h, 024h
     82	      24 24
     83	01A0  24 24 24 24 24 24	24+	 db  024h, 024h, 024h, 024h, 024h, 024h, 024h, 024h, 024h, 024h, 024h, 024h, 024h, 024h,    +
     84	      24 24 24 24 24 24	24+  024h, 024h
     85	      24 24
     86	01B0  24 24 24 24 24 24	24+	 db  024h, 024h, 024h, 024h, 024h, 024h, 024h, 024h, 024h, 024h, 024h, 024h, 024h, 024h,    +
     87	      24 24 24 24 24 24	24+  024h, 024h
     88	      24 24
     89	01C0  24 24 24 24 24 24	24+	 db  024h, 024h, 024h, 024h, 024h, 024h, 024h, 024h, 024h, 024h, 024h, 024h, 024h, 024h,    +
     90	      24 24 24 24 24 24	24+  024h, 024h
     91	      24 24
     92	01D0  24 24 24 24 24 24	24+	 db  024h, 024h, 024h, 024h, 024h, 024h, 024h, 024h, 024h, 024h, 024h, 024h, 024h, 024h,    +
     93	      24 24 24 24 24 24	24+  024h, 024h
     94	      24 24
     95	01E0  24 24 24 24 24 24	24+	 db  024h, 024h, 024h, 024h, 024h, 024h, 024h, 024h, 024h, 024h, 024h, 024h, 024h, 024h,    +
     96	      24 24 24 24 24 24	24+  024h, 024h
     97	      24 24
     98	01F0  24 24 24 24 24 24	24+	 db  024h, 024h, 024h, 024h, 024h, 024h, 024h, 024h, 024h, 024h, 024h, 024h, 024h, 024h,    +
     99	      24 24 24 24 24 24	24+  000h, 000h
    100	      00 00
    101	0200  00 00 00 00 00 00	00+	 db  000h, 000h, 000h, 000h, 000h, 000h, 000h, 000h, 000h, 000h, 000h, 000h, 000h, 000h,    +
    102	      00 00 00 00 00 00	00+  000h, 000h
    103	      00 00
    104	0210  00 00 00 00 00 00	00+	 db  000h, 000h, 000h, 000h, 000h, 000h, 000h, 000h, 000h, 000h, 000h, 000h, 000h, 000h,    +
    105	      00 00 00 00 00 00	00+  000h, 000h
    106	      00 00
    107	0220  00 00 00 00 00 00	00+	 db  000h, 000h, 000h, 000h, 000h, 000h, 000h, 000h, 000h, 000h, 000h, 000h, 000h, 000h,    +
    108	      00 00 00 00 00 00	00+  000h, 000h
    109	      00 00
    110	0230  00 00 00 00 00 00	00+	 db  000h, 000h, 000h, 000h, 000h, 000h, 000h, 000h, 000h, 000h, 000h, 000h, 000h, 000h,    +
    111	      00 00 00 00 00 00	00+  000h, 000h
    112	      00 00
    113	0240  00 00 00 00 00 00	00+	 db  000h, 000h, 000h, 000h, 000h, 000h, 000h, 000h, 000h, 000h, 000h, 000h, 000h, 000h,    +
    114	      00 00 00 00 00 00	00+  000h, 000h
Turbo Assembler	 Version 4.1	    12/29/24 23:45:51	    Page 3
PODFS.ASM



    115	      00 00
    116	0250  00 00 00 00 00 00	00+	 db  000h, 000h, 000h, 000h, 000h, 000h, 000h, 000h, 000h, 000h, 000h, 000h, 000h, 000h,    +
    117	      00 00 00 00 00 00	00+  000h, 000h
    118	      00 00
    119	0260  00 00 00 00 00 00	00+	 db  000h, 000h, 000h, 000h, 000h, 000h, 000h, 000h, 000h, 000h, 000h, 000h, 000h, 000h,    +
    120	      00 00 00 00 00 00	00+  000h, 000h
    121	      00 00
    122	0270  00 00 00 00 00 00	00+	 db  000h, 000h, 000h, 000h, 000h, 000h, 000h, 000h, 000h, 000h, 000h, 000h, 000h, 000h,    +
    123	      00 00 00 00 00 00	00+  000h, 000h
    124	      00 00
    125	0280  00 00 00 00 00 00	00+	 db  000h, 000h, 000h, 000h, 000h, 000h, 000h, 000h, 000h, 000h, 000h, 000h, 000h, 000h,    +
    126	      00 00 00 00 00 00	00+  000h, 000h
    127	      00 00
    128	0290  00 00 00 00 00 00	00+	 db  000h, 000h, 000h, 000h, 000h, 000h, 000h, 000h, 000h, 000h, 000h, 000h, 000h, 000h,    +
    129	      00 00 00 00 00 00	00+  000h, 000h
    130	      00 00
    131	02A0  00 00 00 00 00 00	00+	 db  000h, 000h, 000h, 000h, 000h, 000h, 000h, 000h, 000h, 000h, 000h, 000h, 000h, 000h,    +
    132	      00 00 00 00 00 00	00+  000h, 000h
    133	      00 00
    134	02B0  00 00 00 00 00 00	00+	 db  000h, 000h, 000h, 000h, 000h, 000h, 000h, 000h, 000h, 000h, 000h, 000h, 000h, 000h,    +
    135	      00 00 00 00 00 00	00+  000h, 000h
    136	      00 00
    137	02C0  00 00 00 00 00 00	00+	 db  000h, 000h, 000h, 000h, 000h, 000h, 000h, 000h, 000h, 000h, 000h, 000h, 000h, 000h,    +
    138	      00 00 00 00 00 00	00+  000h, 000h
    139	      00 00
    140	02D0  00 00 00 00 00 00	00+	 db  000h, 000h, 000h, 000h, 000h, 000h, 000h, 000h, 000h, 000h, 000h, 000h, 000h, 000h,    +
    141	      00 00 00 00 00 00	00+  000h, 000h
    142	      00 00
    143	02E0  00 00 00 00 00 00	00+	 db  000h, 000h, 000h, 000h, 000h, 000h, 000h, 000h, 000h, 000h, 000h, 000h, 000h, 000h,    +
    144	      00 00 00 00 00 00	00+  000h, 000h
    145	      00 00
    146	02F0  00 00 00 00 00 00	00+	 db  000h, 000h, 000h, 000h, 000h, 000h, 000h, 000h, 000h, 000h, 000h, 000h, 000h, 000h,    +
    147	      00 00 00 00 00 00	00+  000h, 000h
    148	      00 00
    149	0300  00 00 00 00 00 00	00+	 db  000h, 000h, 000h, 000h, 000h, 000h, 000h, 000h, 000h, 000h, 000h, 000h, 000h, 000h,    +
    150	      00 00 00 00 00 00	00+  000h, 000h
    151	      00 00
    152	0310  00 00 00 00 00 00	00+	 db  000h, 000h, 000h, 000h, 000h, 000h, 000h, 000h, 000h, 000h, 000h, 000h, 000h, 000h,    +
    153	      00 00 00 00 00 00	00+  000h, 000h
    154	      00 00
    155	0320  00 00 00 00 00 00	00+	 db  000h, 000h, 000h, 000h, 000h, 000h, 000h, 000h, 000h, 000h, 000h, 000h, 000h, 000h,    +
    156	      00 00 00 00 00 00	00+  00dh, 00ah
    157	      0D 0A
    158	0330  00 00 00 00 00 00	00+	 db  000h, 000h, 000h, 000h, 000h, 000h, 000h, 000h, 000h, 000h, 000h, 000h, 000h, 000h,    +
    159	      00 00 00 00 00 00	00+  000h, 000h
    160	      00 00
    161	0340  00 00 00 00 00 00	00+	 db  000h, 000h, 000h, 000h, 000h, 000h, 000h, 000h, 000h, 000h, 000h, 000h, 000h, 000h,    +
    162	      00 00 00 00 00 00	00+  000h, 000h
    163	      00 00
    164	0350  00 00 00 00 00 00	00+	 db  000h, 000h, 000h, 000h, 000h, 000h, 000h, 000h, 000h, 000h, 000h, 000h, 000h, 000h,    +
    165	      00 00 00 00 00 00	00+  000h, 000h
    166	      00 00
    167	0360  00 00 00 00 00 00	00+	 db  000h, 000h, 000h, 000h, 000h, 000h, 000h, 000h, 000h, 000h, 000h, 000h, 000h, 000h,    +
    168	      00 00 00 00 00 00	00+  000h, 000h
    169	      00 00
    170	0370  00 00 00 00 00 00	00+	 db  000h, 000h, 000h, 000h, 000h, 000h, 000h, 000h, 000h, 000h, 000h, 000h, 000h, 000h,    +
    171	      00 00 00 00 00 00	00+  000h, 000h
Turbo Assembler	 Version 4.1	    12/29/24 23:45:51	    Page 4
PODFS.ASM



    172	      00 00
    173	0380  00 00 00 00 00 00	00+	 db  000h, 000h, 000h, 000h, 000h, 000h, 000h, 000h, 000h, 000h, 000h, 000h, 000h, 000h,    +
    174	      00 00 00 00 00 00	00+  000h, 000h
    175	      00 00
    176	0390  00 00 00 00 00 00	00+	 db  000h, 000h, 000h, 000h, 000h, 000h, 000h, 000h, 000h, 000h, 000h, 000h, 000h, 000h,    +
    177	      00 00 00 00 00 00	00+  000h, 000h
    178	      00 00
    179	03A0  00 00 00 00 00 00	00+	 db  000h, 000h, 000h, 000h, 000h, 000h, 000h, 000h, 000h, 000h, 000h, 000h, 000h, 000h,    +
    180	      00 00 00 00 00 00	00+  000h, 000h
    181	      00 00
    182	03B0  00 00 00 00 00 00	00+	 db  000h, 000h, 000h, 000h, 000h, 000h, 000h, 000h, 000h, 000h, 000h, 000h, 000h, 000h,    +
    183	      00 00 00 00 00 00	00+  000h, 000h
    184	      00 00
    185	03C0  00 00 00 00 00 00	00+	 db  000h, 000h, 000h, 000h, 000h, 000h, 000h, 000h, 000h, 000h, 000h, 000h, 000h, 000h,    +
    186	      00 00 00 00 00 00	00+  000h, 000h
    187	      00 00
    188	03D0  00 00 00 00 00 00	00+	 db  000h, 000h, 000h, 000h, 000h, 000h, 000h, 000h, 000h, 000h, 000h, 000h, 000h, 000h,    +
    189	      00 00 00 00 00 00	00+  000h, 000h
    190	      00 00
    191	03E0  00 00 00 00 00 00	00+	 db  000h, 000h, 000h, 000h, 000h, 000h, 000h, 000h, 000h, 000h, 000h, 000h, 000h, 000h,    +
    192	      00 00 00 00 00 00	00+  000h, 000h
    193	      00 00
    194	03F0  00 00 00 00 00 00	00+	 db  000h, 000h, 000h, 000h, 000h, 000h, 000h, 000h, 000h, 000h, 000h, 000h, 000h, 000h,    +
    195	      00 00 00 00 00 00	00+  000h, 000h
    196	      00 00
    197	0400  00 00 00 00 00 00	00+	 db  000h, 000h, 000h, 000h, 000h, 000h, 000h, 000h, 000h, 000h, 000h, 000h, 000h, 000h,    +
    198	      00 00 00 00 00 00	00+  000h, 000h
    199	      00 00
    200	0410  00 00 00 00 00 00	00+	 db  000h, 000h, 000h, 000h, 000h, 000h, 000h, 000h, 000h, 000h, 000h, 000h, 000h, 000h,    +
    201	      00 00 00 00 00 00	00+  000h, 000h
    202	      00 00
    203	0420  00 00 00 00 00 00	00+	 db  000h, 000h, 000h, 000h, 000h, 000h, 000h, 000h, 000h, 000h, 000h, 000h, 000h, 000h,    +
    204	      00 00 00 00 00 00	00+  000h, 000h
    205	      00 00
    206	0430  00 00 00 00 00 00	00+	 db  000h, 000h, 000h, 000h, 000h, 000h, 000h, 000h, 000h, 000h, 000h, 000h, 000h, 000h,    +
    207	      00 00 00 00 00 00	00+  000h, 000h
    208	      00 00
    209	0440  00 00 00 00 00 00	00+	 db  000h, 000h, 000h, 000h, 000h, 000h, 000h, 000h, 000h, 000h, 000h, 000h, 000h, 000h,    +
    210	      00 00 00 00 00 00	00+  000h, 000h
    211	      00 00
    212	0450  00 00 00 00 00 00	00+	 db  000h, 000h, 000h, 000h, 000h, 000h, 000h, 000h, 000h, 000h, 000h, 000h, 000h, 000h,    +
    213	      00 00 00 00 00 00	00+  000h, 000h
    214	      00 00
    215	0460  00 44 65 62 75 67	20+	 db  000h, 044h, 065h, 062h, 075h, 067h, 020h, 06dh, 065h, 073h, 073h, 061h, 067h, 065h,    +
    216	      6D 65 73 73 61 67	65+  00dh, 00ah
    217	      0D 0A
    218	0470  24 2F 3F 00 2F 68	00+	 db  024h, 02fh, 03fh, 000h, 02fh, 068h, 000h, 02fh, 048h, 000h, 02dh, 068h, 000h, 02dh,    +
    219	      2F 48 00 2D 68 00	2D+  048h, 000h
    220	      48 00
    221	0480  2D 2D 68 65 6C 70	00+	 db  02dh, 02dh, 068h, 065h, 06ch, 070h, 000h, 050h, 072h, 065h, 073h, 073h, 020h, 061h,    +
    222	      50 72 65 73 73 20	61+  06eh, 079h
    223	      6E 79
    224	0490  20 6B 65 79 20 74	6F+	 db  020h, 06bh, 065h, 079h, 020h, 074h, 06fh, 020h, 063h, 06fh, 06eh, 074h, 069h, 06eh,    +
    225	      20 63 6F 6E 74 69	6E+  075h, 065h
    226	      75 65
    227	04A0  2E 2E 2E 24 0D 20	20+	 db  02eh, 02eh, 02eh, 024h, 00dh, 020h, 020h, 020h, 020h, 020h, 020h, 020h, 020h, 020h,    +
    228	      20 20 20 20 20 20	20+  020h, 020h
Turbo Assembler	 Version 4.1	    12/29/24 23:45:51	    Page 5
PODFS.ASM



    229	      20 20
    230	04B0  20 20 20 20 20 20	20+	 db  020h, 020h, 020h, 020h, 020h, 020h, 020h, 020h, 020h, 020h, 020h, 020h, 020h, 020h,    +
    231	      20 20 20 20 20 20	20+  020h, 020h
    232	      20 20
    233	04C0  20 20 20 20 0D 24	0A+	 db  020h, 020h, 020h, 020h, 00dh, 024h, 00ah, 045h, 052h, 052h, 04fh, 052h, 03ah, 020h,    +
    234	      45 52 52 4F 52 3A	20+  024h, 046h
    235	      24 46
    236	04D0  61 69 6C 65 64 20	74+	 db  061h, 069h, 06ch, 065h, 064h, 020h, 074h, 06fh, 020h, 06fh, 070h, 065h, 06eh, 020h,    +
    237	      6F 20 6F 70 65 6E	20+  066h, 069h
    238	      66 69
    239	04E0  6C 65 21 0D 0A 0A	24+	 db  06ch, 065h, 021h, 00dh, 00ah, 00ah, 024h, 046h, 061h, 069h, 06ch, 065h, 064h, 020h,    +
    240	      46 61 69 6C 65 64	20+  074h, 06fh
    241	      74 6F
    242	04F0  20 63 72 65 61 74	65+	 db  020h, 063h, 072h, 065h, 061h, 074h, 065h, 020h, 066h, 069h, 06ch, 065h, 021h, 00dh,    +
    243	      20 66 69 6C 65 21	0D+  00ah, 00ah
    244	      0A 0A
    245	0500  24 46 61 69 6C 65	64+	 db  024h, 046h, 061h, 069h, 06ch, 065h, 064h, 020h, 074h, 06fh, 020h, 072h, 065h, 061h,    +
    246	      20 74 6F 20 72 65	61+  064h, 020h
    247	      64 20
    248	0510  66 69 6C 65 21 0D	0A+	 db  066h, 069h, 06ch, 065h, 021h, 00dh, 00ah, 00ah, 024h, 046h, 061h, 069h, 06ch, 065h,    +
    249	      0A 24 46 61 69 6C	65+  064h, 020h
    250	      64 20
    251	0520  74 6F 20 77 72 69	74+	 db  074h, 06fh, 020h, 077h, 072h, 069h, 074h, 065h, 020h, 074h, 06fh, 020h, 066h, 069h,    +
    252	      65 20 74 6F 20 66	69+  06ch, 065h
    253	      6C 65
    254	0530  21 0D 0A 0A 24 50	61+	 db  021h, 00dh, 00ah, 00ah, 024h, 050h, 061h, 072h, 061h, 06dh, 065h, 074h, 065h, 072h,    +
    255	      72 61 6D 65 74 65	72+  073h, 020h
    256	      73 20
    257	0540  61 72 65 20 6E 6F	74+	 db  061h, 072h, 065h, 020h, 06eh, 06fh, 074h, 020h, 073h, 070h, 065h, 063h, 069h, 066h,    +
    258	      20 73 70 65 63 69	66+  069h, 065h
    259	      69 65
    260	0550  64 21 0D 0A 0A 24	54+	 db  064h, 021h, 00dh, 00ah, 00ah, 024h, 054h, 06fh, 06fh, 020h, 06dh, 061h, 06eh, 079h,    +
    261	      6F 6F 20 6D 61 6E	79+  020h, 070h
    262	      20 70
    263	0560  61 72 61 6D 65 74	65+	 db  061h, 072h, 061h, 06dh, 065h, 074h, 065h, 072h, 073h, 021h, 00dh, 00ah, 00ah, 024h,    +
    264	      72 73 21 0D 0A 0A	24+  049h, 06eh
    265	      49 6E
    266	0570  76 61 6C 69 64 20	6C+	 db  076h, 061h, 06ch, 069h, 064h, 020h, 06ch, 069h, 06eh, 065h, 020h, 06ch, 065h, 06eh,    +
    267	      69 6E 65 20 6C 65	6E+  067h, 074h
    268	      67 74
    269	0580  68 21 20 43 61 6E	27+	 db  068h, 021h, 020h, 043h, 061h, 06eh, 027h, 074h, 020h, 068h, 061h, 076h, 065h, 020h,    +
    270	      74 20 68 61 76 65	20+  073h, 079h
    271	      73 79
    272	0590  6D 62 6F 6C 73 20	6F+	 db  06dh, 062h, 06fh, 06ch, 073h, 020h, 06fh, 072h, 020h, 06eh, 075h, 06dh, 062h, 065h,    +
    273	      72 20 6E 75 6D 62	65+  072h, 020h
    274	      72 20
    275	05A0  65 71 75 61 6C 20	74+	 db  065h, 071h, 075h, 061h, 06ch, 020h, 074h, 06fh, 020h, 07ah, 065h, 072h, 06fh, 021h,    +
    276	      6F 20 7A 65 72 6F	21+  021h, 021h
    277	      21 21
    278	05B0  0D 0A 0A 24 4C 69	6E+	 db  00dh, 00ah, 00ah, 024h, 04ch, 069h, 06eh, 065h, 020h, 06ch, 065h, 06eh, 067h, 074h,    +
    279	      65 20 6C 65 6E 67	74+  068h, 020h
    280	      68 20
    281	05C0  69 73 20 74 6F 6F	20+	 db  069h, 073h, 020h, 074h, 06fh, 06fh, 020h, 062h, 069h, 067h, 021h, 020h, 053h, 068h,    +
    282	      62 69 67 21 20 53	68+  06fh, 075h
    283	      6F 75
    284	05D0  6C 64 20 62 65 20	32+	 db  06ch, 064h, 020h, 062h, 065h, 020h, 032h, 035h, 035h, 020h, 06fh, 072h, 020h, 06ch,    +
    285	      35 35 20 6F 72 20	6C+  065h, 073h
Turbo Assembler	 Version 4.1	    12/29/24 23:45:51	    Page 6
PODFS.ASM



    286	      65 73
    287	05E0  73 21 21 21 0D 0A	0A+	 db  073h, 021h, 021h, 021h, 00dh, 00ah, 00ah, 024h, 048h, 045h, 04ch, 050h, 020h, 02dh,    +
    288	      24 48 45 4C 50 20	2D+  02dh, 020h
    289	      2D 20
    290	05F0  48 45 4C 50 20 2D	2D+	 db  048h, 045h, 04ch, 050h, 020h, 02dh, 02dh, 020h, 048h, 045h, 04ch, 050h, 020h, 02dh,    +
    291	      20 48 45 4C 50 20	2D+  02dh, 020h
    292	      2D 20
    293	0600  48 45 4C 50 20 2D	2D+	 db  048h, 045h, 04ch, 050h, 020h, 02dh, 02dh, 020h, 048h, 045h, 04ch, 050h, 020h, 02dh,    +
    294	      20 48 45 4C 50 20	2D+  02dh, 020h
    295	      2D 20
    296	0610  48 45 4C 50 20 2D	2D+	 db  048h, 045h, 04ch, 050h, 020h, 02dh, 02dh, 020h, 048h, 045h, 04ch, 050h, 020h, 02dh,    +
    297	      20 48 45 4C 50 20	2D+  02dh, 020h
    298	      2D 20
    299	0620  48 45 4C 50 20 2D	2D+	 db  048h, 045h, 04ch, 050h, 020h, 02dh, 02dh, 020h, 048h, 045h, 04ch, 050h, 020h, 02dh,    +
    300	      20 48 45 4C 50 20	2D+  02dh, 020h
    301	      2D 20
    302	0630  48 45 4C 50 0D 0A	0D+	 db  048h, 045h, 04ch, 050h, 00dh, 00ah, 00dh, 00ah, 024h, 04eh, 041h, 04dh, 045h, 00dh,    +
    303	      0A 24 4E 41 4D 45	0D+  00ah, 020h
    304	      0A 20
    305	0640  20 20 20 20 20 20	61+	 db  020h, 020h, 020h, 020h, 020h, 020h, 061h, 06eh, 074h, 072h, 061h, 020h, 02dh, 020h,    +
    306	      6E 74 72 61 20 2D	20+  053h, 070h
    307	      53 70
    308	0650  6C 69 74 20 74 65	78+	 db  06ch, 069h, 074h, 020h, 074h, 065h, 078h, 074h, 020h, 066h, 069h, 06ch, 065h, 020h,    +
    309	      74 20 66 69 6C 65	20+  069h, 06eh
    310	      69 6E
    311	0660  74 6F 20 6C 69 6E	65+	 db  074h, 06fh, 020h, 06ch, 069h, 06eh, 065h, 073h, 020h, 06fh, 066h, 020h, 073h, 070h,    +
    312	      73 20 6F 66 20 73	70+  065h, 063h
    313	      65 63
    314	0670  69 66 69 65 64 20	6D+	 db  069h, 066h, 069h, 065h, 064h, 020h, 06dh, 061h, 078h, 069h, 06dh, 075h, 06dh, 020h,    +
    315	      61 78 69 6D 75 6D	20+  06ch, 065h
    316	      6C 65
    317	0680  6E 67 74 68 0D 0A	20+	 db  06eh, 067h, 074h, 068h, 00dh, 00ah, 020h, 020h, 020h, 020h, 020h, 020h, 020h, 061h,    +
    318	      20 20 20 20 20 20	61+  06eh, 064h
    319	      6E 64
    320	0690  20 77 72 69 74 65	20+	 db  020h, 077h, 072h, 069h, 074h, 065h, 020h, 074h, 06fh, 020h, 061h, 020h, 06eh, 065h,    +
    321	      74 6F 20 61 20 6E	65+  077h, 020h
    322	      77 20
    323	06A0  66 69 6C 65 2E 0D	0A+	 db  066h, 069h, 06ch, 065h, 02eh, 00dh, 00ah, 00dh, 00ah, 024h, 053h, 059h, 04eh, 04fh,    +
    324	      0D 0A 24 53 59 4E	4F+  050h, 053h
    325	      50 53
    326	06B0  49 53 0D 0A 20 20	20+	 db  049h, 053h, 00dh, 00ah, 020h, 020h, 020h, 020h, 020h, 020h, 020h, 061h, 06eh, 074h,    +
    327	      20 20 20 20 61 6E	74+  072h, 061h
    328	      72 61
    329	06C0  20 49 4E 50 55 54	5F+	 db  020h, 049h, 04eh, 050h, 055h, 054h, 05fh, 046h, 049h, 04ch, 045h, 020h, 04dh, 041h,    +
    330	      46 49 4C 45 20 4D	41+  058h, 05fh
    331	      58 5F
    332	06D0  4C 49 4E 45 5F 4C	45+	 db  04ch, 049h, 04eh, 045h, 05fh, 04ch, 045h, 04eh, 047h, 054h, 048h, 020h, 04fh, 055h,    +
    333	      4E 47 54 48 20 4F	55+  054h, 050h
    334	      54 50
    335	06E0  55 54 5F 46 49 4C	45+	 db  055h, 054h, 05fh, 046h, 049h, 04ch, 045h, 00dh, 00ah, 00dh, 00ah, 020h, 020h, 020h,    +
    336	      0D 0A 0D 0A 20 20	20+  020h, 020h
    337	      20 20
    338	06F0  20 20 61 6E 74 72	61+	 db  020h, 020h, 061h, 06eh, 074h, 072h, 061h, 020h, 02fh, 03fh, 00dh, 00ah, 00dh, 00ah,    +
    339	      20 2F 3F 0D 0A 0D	0A+  020h, 020h
    340	      20 20
    341	0700  20 20 20 20 20 61	6E+	 db  020h, 020h, 020h, 020h, 020h, 061h, 06eh, 074h, 072h, 061h, 020h, 02fh, 068h, 00dh,    +
    342	      74 72 61 20 2F 68	0D+  00ah, 00dh
Turbo Assembler	 Version 4.1	    12/29/24 23:45:51	    Page 7
PODFS.ASM



    343	      0A 0D
    344	0710  0A 20 20 20 20 20	20+	 db  00ah, 020h, 020h, 020h, 020h, 020h, 020h, 020h, 061h, 06eh, 074h, 072h, 061h, 020h,    +
    345	      20 61 6E 74 72 61	20+  02fh, 048h
    346	      2F 48
    347	0720  0D 0A 0D 0A 20 20	20+	 db  00dh, 00ah, 00dh, 00ah, 020h, 020h, 020h, 020h, 020h, 020h, 020h, 061h, 06eh, 074h,    +
    348	      20 20 20 20 61 6E	74+  072h, 061h
    349	      72 61
    350	0730  20 2D 68 0D 0A 0D	0A+	 db  020h, 02dh, 068h, 00dh, 00ah, 00dh, 00ah, 020h, 020h, 020h, 020h, 020h, 020h, 020h,    +
    351	      20 20 20 20 20 20	20+  061h, 06eh
    352	      61 6E
    353	0740  74 72 61 20 2D 48	0D+	 db  074h, 072h, 061h, 020h, 02dh, 048h, 00dh, 00ah, 00dh, 00ah, 020h, 020h, 020h, 020h,    +
    354	      0A 0D 0A 20 20 20	20+  020h, 020h
    355	      20 20
    356	0750  20 61 6E 74 72 61	20+	 db  020h, 061h, 06eh, 074h, 072h, 061h, 020h, 02dh, 02dh, 068h, 065h, 06ch, 070h, 00dh,    +
    357	      2D 2D 68 65 6C 70	0D+  00ah, 00dh
    358	      0A 0D
    359	0760  0A 24 44 45 53 43	52+	 db  00ah, 024h, 044h, 045h, 053h, 043h, 052h, 049h, 050h, 054h, 049h, 04fh, 04eh, 00dh,    +
    360	      49 50 54 49 4F 4E	0D+  00ah, 020h
    361	      0A 20
    362	0770  20 20 20 20 20 20	61+	 db  020h, 020h, 020h, 020h, 020h, 020h, 061h, 06eh, 074h, 072h, 061h, 020h, 072h, 065h,    +
    363	      6E 74 72 61 20 72	65+  061h, 064h
    364	      61 64
    365	0780  73 20 74 68 65 20	63+	 db  073h, 020h, 074h, 068h, 065h, 020h, 063h, 06fh, 06eh, 074h, 065h, 06eh, 074h, 073h,    +
    366	      6F 6E 74 65 6E 74	73+  020h, 06fh
    367	      20 6F
    368	0790  66 20 49 4E 50 55	54+	 db  066h, 020h, 049h, 04eh, 050h, 055h, 054h, 05fh, 046h, 049h, 04ch, 045h, 020h, 061h,    +
    369	      5F 46 49 4C 45 20	61+  06eh, 064h
    370	      6E 64
    371	07A0  20 73 70 6C 69 74	73+	 db  020h, 073h, 070h, 06ch, 069h, 074h, 073h, 020h, 069h, 074h, 073h, 020h, 074h, 065h,    +
    372	      20 69 74 73 20 74	65+  078h, 074h
    373	      78 74
    374	07B0  0D 0A 20 20 20 20	20+	 db  00dh, 00ah, 020h, 020h, 020h, 020h, 020h, 020h, 020h, 069h, 06eh, 074h, 06fh, 020h,    +
    375	      20 20 69 6E 74 6F	20+  06ch, 069h
    376	      6C 69
    377	07C0  6E 65 73 2C 20 65	6E+	 db  06eh, 065h, 073h, 02ch, 020h, 065h, 06eh, 073h, 075h, 072h, 069h, 06eh, 067h, 020h,    +
    378	      73 75 72 69 6E 67	20+  065h, 061h
    379	      65 61
    380	07D0  63 68 20 6C 69 6E	65+	 db  063h, 068h, 020h, 06ch, 069h, 06eh, 065h, 020h, 064h, 06fh, 065h, 073h, 020h, 06eh,    +
    381	      20 64 6F 65 73 20	6E+  06fh, 074h
    382	      6F 74
    383	07E0  20 65 78 63 65 65	64+	 db  020h, 065h, 078h, 063h, 065h, 065h, 064h, 020h, 04dh, 041h, 058h, 05fh, 04ch, 049h,    +
    384	      20 4D 41 58 5F 4C	49+  04eh, 045h
    385	      4E 45
    386	07F0  5F 4C 45 4E 47 54	48+	 db  05fh, 04ch, 045h, 04eh, 047h, 054h, 048h, 00dh, 00ah, 020h, 020h, 020h, 020h, 020h,    +
    387	      0D 0A 20 20 20 20	20+  020h, 020h
    388	      20 20
    389	0800  63 68 61 72 61 63	74+	 db  063h, 068h, 061h, 072h, 061h, 063h, 074h, 065h, 072h, 073h, 02eh, 020h, 054h, 068h,    +
    390	      65 72 73 2E 20 54	68+  065h, 020h
    391	      65 20
    392	0810  6F 75 74 70 75 74	20+	 db  06fh, 075h, 074h, 070h, 075h, 074h, 020h, 069h, 073h, 020h, 077h, 072h, 069h, 074h,    +
    393	      69 73 20 77 72 69	74+  074h, 065h
    394	      74 65
    395	0820  6E 20 74 6F 20 4F	55+	 db  06eh, 020h, 074h, 06fh, 020h, 04fh, 055h, 054h, 050h, 055h, 054h, 05fh, 046h, 049h,    +
    396	      54 50 55 54 5F 46	49+  04ch, 045h
    397	      4C 45
    398	0830  2C 20 77 69 74 68	20+	 db  02ch, 020h, 077h, 069h, 074h, 068h, 020h, 065h, 061h, 063h, 068h, 00dh, 00ah, 020h,    +
    399	      65 61 63 68 0D 0A	20+  020h, 020h
Turbo Assembler	 Version 4.1	    12/29/24 23:45:51	    Page 8
PODFS.ASM



    400	      20 20
    401	0840  20 20 20 20 6C 69	6E+	 db  020h, 020h, 020h, 020h, 06ch, 069h, 06eh, 065h, 020h, 066h, 06fh, 072h, 06dh, 061h,    +
    402	      65 20 66 6F 72 6D	61+  074h, 074h
    403	      74 74
    404	0850  65 64 20 61 63 63	6F+	 db  065h, 064h, 020h, 061h, 063h, 063h, 06fh, 072h, 064h, 069h, 06eh, 067h, 020h, 074h,    +
    405	      72 64 69 6E 67 20	74+  06fh, 020h
    406	      6F 20
    407	0860  74 68 65 20 73 70	65+	 db  074h, 068h, 065h, 020h, 073h, 070h, 065h, 063h, 069h, 066h, 069h, 065h, 064h, 020h,    +
    408	      63 69 66 69 65 64	20+  06ch, 065h
    409	      6C 65
    410	0870  6E 67 74 68 2E 0D	0A+	 db  06eh, 067h, 074h, 068h, 02eh, 00dh, 00ah, 00dh, 00ah, 024h, 020h, 020h, 020h, 020h,    +
    411	      0D 0A 24 20 20 20	20+  020h, 020h
    412	      20 20
    413	0880  20 45 78 61 6D 70	6C+	 db  020h, 045h, 078h, 061h, 06dh, 070h, 06ch, 065h, 03ah, 00dh, 00ah, 020h, 020h, 020h,    +
    414	      65 3A 0D 0A 20 20	20+  020h, 020h
    415	      20 20
    416	0890  20 20 20 20 20 20	20+	 db  020h, 020h, 020h, 020h, 020h, 020h, 020h, 020h, 020h, 049h, 066h, 020h, 027h, 064h,    +
    417	      20 20 49 66 20 27	64+  075h, 06fh
    418	      75 6F
    419	08A0  6D 2E 74 78 74 27	20+	 db  06dh, 02eh, 074h, 078h, 074h, 027h, 020h, 063h, 06fh, 06eh, 074h, 061h, 069h, 06eh,    +
    420	      63 6F 6E 74 61 69	6E+  073h, 020h
    421	      73 20
    422	08B0  61 20 6C 6F 6E 67	20+	 db  061h, 020h, 06ch, 06fh, 06eh, 067h, 020h, 062h, 06ch, 06fh, 063h, 06bh, 020h, 06fh,    +
    423	      62 6C 6F 63 6B 20	6F+  066h, 020h
    424	      66 20
    425	08C0  74 65 78 74 2C 20	72+	 db  074h, 065h, 078h, 074h, 02ch, 020h, 072h, 075h, 06eh, 06eh, 069h, 06eh, 067h, 03ah,    +
    426	      75 6E 6E 69 6E 67	3A+  00dh, 00ah
    427	      0D 0A
    428	08D0  20 20 20 20 20 20	20+	 db  020h, 020h, 020h, 020h, 020h, 020h, 020h, 020h, 020h, 020h, 020h, 020h, 020h, 020h,    +
    429	      20 20 20 20 20 20	20+  020h, 020h
    430	      20 20
    431	08E0  20 20 61 6E 74 72	61+	 db  020h, 020h, 061h, 06eh, 074h, 072h, 061h, 020h, 064h, 075h, 06fh, 06dh, 02eh, 074h,    +
    432	      20 64 75 6F 6D 2E	74+  078h, 074h
    433	      78 74
    434	08F0  20 38 30 20 72 65	7A+	 db  020h, 038h, 030h, 020h, 072h, 065h, 07ah, 02eh, 074h, 078h, 074h, 00dh, 00ah, 020h,    +
    435	      2E 74 78 74 0D 0A	20+  020h, 020h
    436	      20 20
    437	0900  20 20 20 20 20 20	20+	 db  020h, 020h, 020h, 020h, 020h, 020h, 020h, 020h, 020h, 020h, 020h, 077h, 069h, 06ch,    +
    438	      20 20 20 20 77 69	6C+  06ch, 020h
    439	      6C 20
    440	0910  63 72 65 61 74 65	20+	 db  063h, 072h, 065h, 061h, 074h, 065h, 020h, 027h, 072h, 065h, 07ah, 02eh, 074h, 078h,    +
    441	      27 72 65 7A 2E 74	78+  074h, 027h
    442	      74 27
    443	0920  2C 20 77 68 65 72	65+	 db  02ch, 020h, 077h, 068h, 065h, 072h, 065h, 020h, 065h, 061h, 063h, 068h, 020h, 06ch,    +
    444	      20 65 61 63 68 20	6C+  069h, 06eh
    445	      69 6E
    446	0930  65 20 69 73 20 6E	6F+	 db  065h, 020h, 069h, 073h, 020h, 06eh, 06fh, 020h, 06ch, 06fh, 06eh, 067h, 065h, 072h,    +
    447	      20 6C 6F 6E 67 65	72+  00dh, 00ah
    448	      0D 0A
    449	0940  20 20 20 20 20 20	20+	 db  020h, 020h, 020h, 020h, 020h, 020h, 020h, 020h, 020h, 020h, 020h, 020h, 020h, 020h,    +
    450	      20 20 20 20 20 20	20+  074h, 068h
    451	      74 68
    452	0950  61 6E 20 38 30 20	63+	 db  061h, 06eh, 020h, 038h, 030h, 020h, 063h, 068h, 061h, 072h, 061h, 063h, 074h, 065h,    +
    453	      68 61 72 61 63 74	65+  072h, 073h
    454	      72 73
    455	0960  2C 20 62 61 73 65	64+	 db  02ch, 020h, 062h, 061h, 073h, 065h, 064h, 020h, 06fh, 06eh, 020h, 074h, 068h, 065h,    +
    456	      20 6F 6E 20 74 68	65+  020h, 069h
Turbo Assembler	 Version 4.1	    12/29/24 23:45:51	    Page 9
PODFS.ASM



    457	      20 69
    458	0970  6E 70 75 74 20 74	65+	 db  06eh, 070h, 075h, 074h, 020h, 074h, 065h, 078h, 074h, 020h, 069h, 06eh, 020h, 027h,    +
    459	      78 74 20 69 6E 20	27+  064h, 075h
    460	      64 75
    461	0980  6F 6D 2E 74 78 74	27+	 db  06fh, 06dh, 02eh, 074h, 078h, 074h, 027h, 02eh, 00dh, 00ah, 00dh, 00ah, 024h, 04fh,    +
    462	      2E 0D 0A 0D 0A 24	4F+  050h, 054h
    463	      50 54
    464	0990  49 4F 4E 53 0D 0A	20+	 db  049h, 04fh, 04eh, 053h, 00dh, 00ah, 020h, 020h, 020h, 020h, 020h, 020h, 020h, 049h,    +
    465	      20 20 20 20 20 20	49+  04eh, 050h
    466	      4E 50
    467	09A0  55 54 5F 46 49 4C	45+	 db  055h, 054h, 05fh, 046h, 049h, 04ch, 045h, 00dh, 00ah, 020h, 020h, 020h, 020h, 020h,    +
    468	      0D 0A 20 20 20 20	20+  020h, 020h
    469	      20 20
    470	09B0  20 20 20 20 20 20	20+	 db  020h, 020h, 020h, 020h, 020h, 020h, 020h, 053h, 070h, 065h, 063h, 069h, 066h, 069h,    +
    471	      53 70 65 63 69 66	69+  065h, 073h
    472	      65 73
    473	09C0  20 74 68 65 20 70	61+	 db  020h, 074h, 068h, 065h, 020h, 070h, 061h, 074h, 068h, 020h, 074h, 06fh, 020h, 074h,    +
    474	      74 68 20 74 6F 20	74+  068h, 065h
    475	      68 65
    476	09D0  20 66 69 6C 65 20	63+	 db  020h, 066h, 069h, 06ch, 065h, 020h, 063h, 06fh, 06eh, 074h, 061h, 069h, 06eh, 069h,    +
    477	      6F 6E 74 61 69 6E	69+  06eh, 067h
    478	      6E 67
    479	09E0  0D 0A 20 20 20 20	20+	 db  00dh, 00ah, 020h, 020h, 020h, 020h, 020h, 020h, 020h, 020h, 020h, 020h, 020h, 020h,    +
    480	      20 20 20 20 20 20	20+  020h, 020h
    481	      20 20
    482	09F0  74 68 65 20 74 65	78+	 db  074h, 068h, 065h, 020h, 074h, 065h, 078h, 074h, 020h, 074h, 06fh, 020h, 062h, 065h,    +
    483	      74 20 74 6F 20 62	65+  020h, 070h
    484	      20 70
    485	0A00  72 6F 63 65 73 73	65+	 db  072h, 06fh, 063h, 065h, 073h, 073h, 065h, 064h, 02eh, 00dh, 00ah, 020h, 020h, 020h,    +
    486	      64 2E 0D 0A 20 20	20+  020h, 020h
    487	      20 20
    488	0A10  20 20 4D 41 58 5F	4C+	 db  020h, 020h, 04dh, 041h, 058h, 05fh, 04ch, 049h, 04eh, 045h, 05fh, 04ch, 045h, 04eh,    +
    489	      49 4E 45 5F 4C 45	4E+  047h, 054h
    490	      47 54
    491	0A20  48 0D 0A 20 20 20	20+	 db  048h, 00dh, 00ah, 020h, 020h, 020h, 020h, 020h, 020h, 020h, 020h, 020h, 020h, 020h,    +
    492	      20 20 20 20 20 20	20+  020h, 020h
    493	      20 20
    494	0A30  20 53 70 65 63 69	66+	 db  020h, 053h, 070h, 065h, 063h, 069h, 066h, 069h, 065h, 073h, 020h, 074h, 068h, 065h,    +
    495	      69 65 73 20 74 68	65+  020h, 06dh
    496	      20 6D
    497	0A40  61 78 69 6D 75 6D	20+	 db  061h, 078h, 069h, 06dh, 075h, 06dh, 020h, 061h, 06ch, 06ch, 06fh, 077h, 065h, 064h,    +
    498	      61 6C 6C 6F 77 65	64+  020h, 06ch
    499	      20 6C
    500	0A50  65 6E 67 74 68 20	6F+	 db  065h, 06eh, 067h, 074h, 068h, 020h, 06fh, 066h, 020h, 065h, 061h, 063h, 068h, 020h,    +
    501	      66 20 65 61 63 68	20+  06ch, 069h
    502	      6C 69
    503	0A60  6E 65 0D 0A 20 20	20+	 db  06eh, 065h, 00dh, 00ah, 020h, 020h, 020h, 020h, 020h, 020h, 020h, 020h, 020h, 020h,    +
    504	      20 20 20 20 20 20	20+  020h, 020h
    505	      20 20
    506	0A70  20 20 69 6E 20 63	68+	 db  020h, 020h, 069h, 06eh, 020h, 063h, 068h, 061h, 072h, 061h, 063h, 074h, 065h, 072h,    +
    507	      61 72 61 63 74 65	72+  073h, 02eh
    508	      73 2E
    509	0A80  20 4C 69 6E 65 73	20+	 db  020h, 04ch, 069h, 06eh, 065h, 073h, 020h, 077h, 069h, 06ch, 06ch, 020h, 062h, 065h,    +
    510	      77 69 6C 6C 20 62	65+  020h, 077h
    511	      20 77
    512	0A90  72 61 70 70 65 64	20+	 db  072h, 061h, 070h, 070h, 065h, 064h, 020h, 061h, 074h, 020h, 074h, 068h, 069h, 073h,    +
    513	      61 74 20 74 68 69	73+  020h, 06ch
Turbo Assembler	 Version 4.1	    12/29/24 23:45:51	    Page 10
PODFS.ASM



    514	      20 6C
    515	0AA0  65 6E 67 74 68 2E	0D+	 db  065h, 06eh, 067h, 074h, 068h, 02eh, 00dh, 00ah, 020h, 020h, 020h, 020h, 020h, 020h,    +
    516	      0A 20 20 20 20 20	20+  020h, 04fh
    517	      20 4F
    518	0AB0  55 54 50 55 54 5F	46+	 db  055h, 054h, 050h, 055h, 054h, 05fh, 046h, 049h, 04ch, 045h, 00dh, 00ah, 020h, 020h,    +
    519	      49 4C 45 0D 0A 20	20+  020h, 020h
    520	      20 20
    521	0AC0  20 20 20 20 20 20	20+	 db  020h, 020h, 020h, 020h, 020h, 020h, 020h, 020h, 020h, 020h, 053h, 070h, 065h, 063h,    +
    522	      20 20 20 53 70 65	63+  069h, 066h
    523	      69 66
    524	0AD0  69 65 73 20 74 68	65+	 db  069h, 065h, 073h, 020h, 074h, 068h, 065h, 020h, 070h, 061h, 074h, 068h, 020h, 074h,    +
    525	      20 70 61 74 68 20	74+  06fh, 020h
    526	      6F 20
    527	0AE0  74 68 65 20 66 69	6C+	 db  074h, 068h, 065h, 020h, 066h, 069h, 06ch, 065h, 020h, 077h, 068h, 065h, 072h, 065h,    +
    528	      65 20 77 68 65 72	65+  020h, 074h
    529	      20 74
    530	0AF0  68 65 20 6F 75 74	70+	 db  068h, 065h, 020h, 06fh, 075h, 074h, 070h, 075h, 074h, 00dh, 00ah, 020h, 020h, 020h,    +
    531	      75 74 0D 0A 20 20	20+  020h, 020h
    532	      20 20
    533	0B00  20 20 20 20 20 20	20+	 db  020h, 020h, 020h, 020h, 020h, 020h, 020h, 020h, 020h, 028h, 066h, 06fh, 072h, 06dh,    +
    534	      20 20 28 66 6F 72	6D+  061h, 074h
    535	      61 74
    536	0B10  74 65 64 20 74 65	78+	 db  074h, 065h, 064h, 020h, 074h, 065h, 078h, 074h, 029h, 020h, 077h, 069h, 06ch, 06ch,    +
    537	      74 29 20 77 69 6C	6C+  020h, 062h
    538	      20 62
    539	0B20  65 20 73 61 76 65	64+	 db  065h, 020h, 073h, 061h, 076h, 065h, 064h, 02eh, 00dh, 00ah, 00dh, 00ah, 024h, 04eh,    +
    540	      2E 0D 0A 0D 0A 24	4E+  04fh, 054h
    541	      4F 54
    542	0B30  45 53 0D 0A 20 20	20+	 db  045h, 053h, 00dh, 00ah, 020h, 020h, 020h, 020h, 020h, 020h, 020h, 02dh, 020h, 054h,    +
    543	      20 20 20 20 2D 20	54+  068h, 065h
    544	      68 65
    545	0B40  20 70 72 6F 67 72	61+	 db  020h, 070h, 072h, 06fh, 067h, 072h, 061h, 06dh, 020h, 072h, 065h, 061h, 064h, 073h,    +
    546	      6D 20 72 65 61 64	73+  020h, 074h
    547	      20 74
    548	0B50  68 65 20 69 6E 70	75+	 db  068h, 065h, 020h, 069h, 06eh, 070h, 075h, 074h, 020h, 074h, 065h, 078h, 074h, 020h,    +
    549	      74 20 74 65 78 74	20+  066h, 069h
    550	      66 69
    551	0B60  6C 65 20 61 6E 64	20+	 db  06ch, 065h, 020h, 061h, 06eh, 064h, 020h, 062h, 072h, 065h, 061h, 06bh, 073h, 020h,    +
    552	      62 72 65 61 6B 73	20+  06ch, 069h
    553	      6C 69
    554	0B70  6E 65 73 0D 0A 20	20+	 db  06eh, 065h, 073h, 00dh, 00ah, 020h, 020h, 020h, 020h, 020h, 020h, 020h, 020h, 020h,    +
    555	      20 20 20 20 20 20	20+  062h, 061h
    556	      62 61
    557	0B80  73 65 64 20 6F 6E	20+	 db  073h, 065h, 064h, 020h, 06fh, 06eh, 020h, 074h, 068h, 065h, 020h, 073h, 070h, 065h,    +
    558	      74 68 65 20 73 70	65+  063h, 069h
    559	      63 69
    560	0B90  66 69 65 64 20 63	68+	 db  066h, 069h, 065h, 064h, 020h, 063h, 068h, 061h, 072h, 061h, 063h, 074h, 065h, 072h,    +
    561	      61 72 61 63 74 65	72+  020h, 06ch
    562	      20 6C
    563	0BA0  69 6D 69 74 2C 20	69+	 db  069h, 06dh, 069h, 074h, 02ch, 020h, 069h, 066h, 020h, 070h, 06fh, 073h, 073h, 069h,    +
    564	      66 20 70 6F 73 73	69+  062h, 06ch
    565	      62 6C
    566	0BB0  65 2E 0D 0A 20 20	20+	 db  065h, 02eh, 00dh, 00ah, 020h, 020h, 020h, 020h, 020h, 020h, 020h, 02dh, 020h, 054h,    +
    567	      20 20 20 20 2D 20	54+  068h, 065h
    568	      68 65
    569	0BC0  20 69 6E 70 75 74	20+	 db  020h, 069h, 06eh, 070h, 075h, 074h, 020h, 061h, 06eh, 064h, 020h, 06fh, 075h, 074h,    +
    570	      61 6E 64 20 6F 75	74+  070h, 075h
Turbo Assembler	 Version 4.1	    12/29/24 23:45:51	    Page 11
PODFS.ASM



    571	      70 75
    572	0BD0  74 20 66 69 6C 65	20+	 db  074h, 020h, 066h, 069h, 06ch, 065h, 020h, 070h, 061h, 074h, 068h, 073h, 020h, 073h,    +
    573	      70 61 74 68 73 20	73+  068h, 06fh
    574	      68 6F
    575	0BE0  75 6C 64 20 62 65	20+	 db  075h, 06ch, 064h, 020h, 062h, 065h, 020h, 070h, 072h, 06fh, 076h, 069h, 064h, 065h,    +
    576	      70 72 6F 76 69 64	65+  064h, 020h
    577	      64 20
    578	0BF0  77 69 74 68 20 61	0D+	 db  077h, 069h, 074h, 068h, 020h, 061h, 00dh, 00ah, 020h, 020h, 020h, 020h, 020h, 020h,    +
    579	      0A 20 20 20 20 20	20+  020h, 020h
    580	      20 20
    581	0C00  20 6D 61 78 69 6D	75+	 db  020h, 06dh, 061h, 078h, 069h, 06dh, 075h, 06dh, 020h, 06fh, 066h, 020h, 032h, 035h,    +
    582	      6D 20 6F 66 20 32	35+  035h, 020h
    583	      35 20
    584	0C10  63 68 61 72 61 63	74+	 db  063h, 068h, 061h, 072h, 061h, 063h, 074h, 065h, 072h, 073h, 020h, 069h, 06eh, 020h,    +
    585	      65 72 73 20 69 6E	20+  06ch, 065h
    586	      6C 65
    587	0C20  6E 67 74 68 2E 0D	0A+	 db  06eh, 067h, 074h, 068h, 02eh, 00dh, 00ah, 020h, 020h, 020h, 020h, 020h, 020h, 020h,    +
    588	      20 20 20 20 20 20	20+  02dh, 020h
    589	      2D 20
    590	0C30  54 68 65 20 4D 41	58+	 db  054h, 068h, 065h, 020h, 04dh, 041h, 058h, 05fh, 04ch, 049h, 04eh, 045h, 05fh, 04ch,    +
    591	      5F 4C 49 4E 45 5F	4C+  045h, 04eh
    592	      45 4E
    593	0C40  47 54 48 20 73 68	6F+	 db  047h, 054h, 048h, 020h, 073h, 068h, 06fh, 075h, 06ch, 064h, 020h, 062h, 065h, 020h,    +
    594	      75 6C 64 20 62 65	20+  061h, 020h
    595	      61 20
    596	0C50  70 6F 73 69 74 69	76+	 db  070h, 06fh, 073h, 069h, 074h, 069h, 076h, 065h, 020h, 069h, 06eh, 074h, 065h, 067h,    +
    597	      65 20 69 6E 74 65	67+  065h, 072h
    598	      65 72
    599	0C60  2C 20 74 79 70 69	63+	 db  02ch, 020h, 074h, 079h, 070h, 069h, 063h, 061h, 06ch, 06ch, 079h, 00dh, 00ah, 020h,    +
    600	      61 6C 6C 79 0D 0A	20+  020h, 020h
    601	      20 20
    602	0C70  20 20 20 20 20 20	6E+	 db  020h, 020h, 020h, 020h, 020h, 020h, 06eh, 06fh, 074h, 020h, 067h, 072h, 065h, 061h,    +
    603	      6F 74 20 67 72 65	61+  074h, 065h
    604	      74 65
    605	0C80  72 20 74 68 61 6E	20+	 db  072h, 020h, 074h, 068h, 061h, 06eh, 020h, 032h, 035h, 035h, 073h, 02eh, 00dh, 00ah,    +
    606	      32 35 35 73 2E 0D	0A+  00dh, 00ah
    607	      0D 0A
    608	0C90  24 45 58 41 4D 50	4C+	 db  024h, 045h, 058h, 041h, 04dh, 050h, 04ch, 045h, 053h, 00dh, 00ah, 020h, 020h, 020h,    +
    609	      45 53 0D 0A 20 20	20+  020h, 020h
    610	      20 20
    611	0CA0  20 20 54 6F 20 66	6F+	 db  020h, 020h, 054h, 06fh, 020h, 066h, 06fh, 072h, 06dh, 061h, 074h, 020h, 027h, 064h,    +
    612	      72 6D 61 74 20 27	64+  075h, 06fh
    613	      75 6F
    614	0CB0  6D 2E 74 78 74 27	20+	 db  06dh, 02eh, 074h, 078h, 074h, 027h, 020h, 077h, 069h, 074h, 068h, 020h, 06ch, 069h,    +
    615	      77 69 74 68 20 6C	69+  06eh, 065h
    616	      6E 65
    617	0CC0  73 20 75 70 20 74	6F+	 db  073h, 020h, 075h, 070h, 020h, 074h, 06fh, 020h, 038h, 030h, 020h, 063h, 068h, 061h,    +
    618	      20 38 30 20 63 68	61+  072h, 061h
    619	      72 61
    620	0CD0  63 74 65 72 73 20	69+	 db  063h, 074h, 065h, 072h, 073h, 020h, 069h, 06eh, 020h, 06ch, 065h, 06eh, 067h, 074h,    +
    621	      6E 20 6C 65 6E 67	74+  068h, 00dh
    622	      68 0D
    623	0CE0  0A 20 20 20 20 20	20+	 db  00ah, 020h, 020h, 020h, 020h, 020h, 020h, 020h, 061h, 06eh, 064h, 020h, 073h, 061h,    +
    624	      20 61 6E 64 20 73	61+  076h, 065h
    625	      76 65
    626	0CF0  20 69 74 20 74 6F	20+	 db  020h, 069h, 074h, 020h, 074h, 06fh, 020h, 027h, 072h, 065h, 07ah, 02eh, 074h, 078h,    +
    627	      27 72 65 7A 2E 74	78+  074h, 027h
Turbo Assembler	 Version 4.1	    12/29/24 23:45:51	    Page 12
PODFS.ASM



    628	      74 27
    629	0D00  3A 0D 0A 0D 0A 20	20+	 db  03ah, 00dh, 00ah, 00dh, 00ah, 020h, 020h, 020h, 020h, 020h, 020h, 020h, 020h, 020h,    +
    630	      20 20 20 20 20 20	20+  020h, 020h
    631	      20 20
    632	0D10  20 20 20 61 6E 74	72+	 db  020h, 020h, 020h, 061h, 06eh, 074h, 072h, 061h, 020h, 064h, 075h, 06fh, 06dh, 02eh,    +
    633	      61 20 64 75 6F 6D	2E+  074h, 078h
    634	      74 78
    635	0D20  74 20 38 30 20 72	65+	 db  074h, 020h, 038h, 030h, 020h, 072h, 065h, 07ah, 02eh, 074h, 078h, 074h, 00dh, 00ah,    +
    636	      7A 2E 74 78 74 0D	0A+  00dh, 00ah
    637	      0D 0A
    638	0D30  20 20 20 20 20 20	20+	 db  020h, 020h, 020h, 020h, 020h, 020h, 020h, 054h, 06fh, 020h, 066h, 06fh, 072h, 06dh,    +
    639	      54 6F 20 66 6F 72	6D+  061h, 074h
    640	      61 74
    641	0D40  20 61 20 64 69 66	66+	 db  020h, 061h, 020h, 064h, 069h, 066h, 066h, 065h, 072h, 065h, 06eh, 074h, 020h, 066h,    +
    642	      65 72 65 6E 74 20	66+  069h, 06ch
    643	      69 6C
    644	0D50  65 2C 20 27 69 6E	70+	 db  065h, 02ch, 020h, 027h, 069h, 06eh, 070h, 075h, 074h, 02eh, 074h, 078h, 074h, 027h,    +
    645	      75 74 2E 74 78 74	27+  02ch, 020h
    646	      2C 20
    647	0D60  77 69 74 68 20 6C	69+	 db  077h, 069h, 074h, 068h, 020h, 06ch, 069h, 06eh, 065h, 073h, 020h, 075h, 070h, 020h,    +
    648	      6E 65 73 20 75 70	20+  074h, 06fh
    649	      74 6F
    650	0D70  20 31 30 30 0D 0A	20+	 db  020h, 031h, 030h, 030h, 00dh, 00ah, 020h, 020h, 020h, 020h, 020h, 020h, 020h, 063h,    +
    651	      20 20 20 20 20 20	63+  068h, 061h
    652	      68 61
    653	0D80  72 61 63 74 65 72	73+	 db  072h, 061h, 063h, 074h, 065h, 072h, 073h, 020h, 069h, 06eh, 020h, 06ch, 065h, 06eh,    +
    654	      20 69 6E 20 6C 65	6E+  067h, 074h
    655	      67 74
    656	0D90  68 3A 0D 0A 0D 0A	20+	 db  068h, 03ah, 00dh, 00ah, 00dh, 00ah, 020h, 020h, 020h, 020h, 020h, 020h, 020h, 020h,    +
    657	      20 20 20 20 20 20	20+  020h, 020h
    658	      20 20
    659	0DA0  20 20 20 20 61 6E	74+	 db  020h, 020h, 020h, 020h, 061h, 06eh, 074h, 072h, 061h, 020h, 069h, 06eh, 070h, 075h,    +
    660	      72 61 20 69 6E 70	75+  074h, 02eh
    661	      74 2E
    662	0DB0  74 78 74 20 31 30	30+	 db  074h, 078h, 074h, 020h, 031h, 030h, 030h, 020h, 06fh, 075h, 074h, 070h, 075h, 074h,    +
    663	      20 6F 75 74 70 75	74+  02eh, 074h
    664	      2E 74
    665	0DC0  78 74 0D 0A 0D 0A	24+	 db  078h, 074h, 00dh, 00ah, 00dh, 00ah, 024h, 041h, 055h, 054h, 048h, 04fh, 052h, 00dh,    +
    666	      41 55 54 48 4F 52	0D+  00ah, 020h
    667	      0A 20
    668	0DD0  20 20 20 20 20 20	57+	 db  020h, 020h, 020h, 020h, 020h, 020h, 057h, 072h, 069h, 074h, 074h, 065h, 06eh, 020h,    +
    669	      72 69 74 74 65 6E	20+  062h, 079h
    670	      62 79
    671	0DE0  20 52 6F 6B 61 73	20+	 db  020h, 052h, 06fh, 06bh, 061h, 073h, 020h, 042h, 072h, 061h, 069h, 064h, 06fh, 06bh,    +
    672	      42 72 61 69 64 6F	6B+  061h, 073h
    673	      61 73
    674	0DF0  2E 0D 0A 0D 0A 24	43+	 db  02eh, 00dh, 00ah, 00dh, 00ah, 024h, 043h, 04fh, 050h, 059h, 052h, 049h, 047h, 048h,    +
    675	      4F 50 59 52 49 47	48+  054h, 00dh
    676	      54 0D
    677	0E00  0A 20 20 20 20 20	20+	 db  00ah, 020h, 020h, 020h, 020h, 020h, 020h, 020h, 043h, 06fh, 070h, 079h, 072h, 069h,    +
    678	      20 43 6F 70 79 72	69+  067h, 068h
    679	      67 68
    680	0E10  74 20 32 30 32 34	20+	 db  074h, 020h, 032h, 030h, 032h, 034h, 020h, 056h, 055h, 02eh, 00dh, 00ah, 024h
    681	      56 55 2E 0D 0A 24
    682	0E1D			     .CODE
    683				     ;;	 SCANNING...
    684	0000			     place_00200h:
Turbo Assembler	 Version 4.1	    12/29/24 23:45:51	    Page 13
PODFS.ASM



    685	0000  50			 push	 ax
    686	0001			     place_00201h:
    687	0001  52			 push	 dx
    688	0002			     place_00202h:
    689	0002  B4 09			 mov	 ah, 009h
    690	0004			     place_00204h:
    691	0004  BA 0461			 mov	 dx, 00461h
    692	0007			     place_00207h:
    693	0007  CD 21			 int	 021h
    694	0009			     place_00209h:
    695	0009  E8 009E			 call	 place_002aah
    696	000C			     place_0020ch:
    697	000C  5A			 pop	 dx
    698	000D			     place_0020dh:
    699	000D  58			 pop	 ax
    700	000E			     place_0020eh:
    701	000E  C3			 ret
    702	000F			     place_0020fh:
    703	000F  B4 3E			 mov	 ah, 03eh
    704	0011			     place_00211h:
    705	0011  8B 1E 01FE		 mov	 bx, word ptr ds:[ 001feh ]
    706	0015			     place_00215h:
    707	0015  CD 21			 int	 021h
    708	0017			     place_00217h:
    709	0017  8B 1E 0200		 mov	 bx, word ptr ds:[ 00200h ]
    710	001B			     place_0021bh:
    711	001B  CD 21			 int	 021h
    712	001D			     place_0021dh:
    713	001D  B8 4C00			 mov	 ax, 04c00h
    714	0020			     place_00220h:
    715	0020  CD 21			 int	 021h
    716	0022			     place_00222h:
    717	0022  50			 push	 ax
    718	0023			     place_00223h:
    719	0023  52			 push	 dx
    720	0024			     place_00224h:
    721	0024  B4 09			 mov	 ah, 009h
    722	0026			     place_00226h:
    723	0026  BA 04C6			 mov	 dx, 004c6h
    724	0029			     place_00229h:
    725	0029  CD 21			 int	 021h
    726	002B			     place_0022bh:
    727	002B  BA 04CF			 mov	 dx, 004cfh
    728	002E			     place_0022eh:
    729	002E  CD 21			 int	 021h
    730	0030			     place_00230h:
    731	0030  5A			 pop	 dx
    732	0031			     place_00231h:
    733	0031  58			 pop	 ax
    734	0032			     place_00232h:
    735	0032  C3			 ret
    736	0033			     place_00233h:
    737	0033  50			 push	 ax
    738	0034			     place_00234h:
    739	0034  52			 push	 dx
    740	0035			     place_00235h:
    741	0035  B4 09			 mov	 ah, 009h
Turbo Assembler	 Version 4.1	    12/29/24 23:45:51	    Page 14
PODFS.ASM



    742	0037			     place_00237h:
    743	0037  BA 04C6			 mov	 dx, 004c6h
    744	003A			     place_0023ah:
    745	003A  CD 21			 int	 021h
    746	003C			     place_0023ch:
    747	003C  BA 04E7			 mov	 dx, 004e7h
    748	003F			     place_0023fh:
    749	003F  CD 21			 int	 021h
    750	0041			     place_00241h:
    751	0041  5A			 pop	 dx
    752	0042			     place_00242h:
    753	0042  58			 pop	 ax
    754	0043			     place_00243h:
    755	0043  C3			 ret
    756	0044			     place_00244h:
    757	0044  50			 push	 ax
    758	0045			     place_00245h:
    759	0045  52			 push	 dx
    760	0046			     place_00246h:
    761	0046  B4 09			 mov	 ah, 009h
    762	0048			     place_00248h:
    763	0048  BA 04C6			 mov	 dx, 004c6h
    764	004B			     place_0024bh:
    765	004B  CD 21			 int	 021h
    766	004D			     place_0024dh:
    767	004D  BA 0501			 mov	 dx, 00501h
    768	0050			     place_00250h:
    769	0050  CD 21			 int	 021h
    770	0052			     place_00252h:
    771	0052  5A			 pop	 dx
    772	0053			     place_00253h:
    773	0053  58			 pop	 ax
    774	0054			     place_00254h:
    775	0054  C3			 ret
    776	0055			     place_00255h:
    777	0055  50			 push	 ax
    778	0056			     place_00256h:
    779	0056  52			 push	 dx
    780	0057			     place_00257h:
    781	0057  B4 09			 mov	 ah, 009h
    782	0059			     place_00259h:
    783	0059  BA 04C6			 mov	 dx, 004c6h
    784	005C			     place_0025ch:
    785	005C  CD 21			 int	 021h
    786	005E			     place_0025eh:
    787	005E  BA 0519			 mov	 dx, 00519h
    788	0061			     place_00261h:
    789	0061  CD 21			 int	 021h
    790	0063			     place_00263h:
    791	0063  5A			 pop	 dx
    792	0064			     place_00264h:
    793	0064  58			 pop	 ax
    794	0065			     place_00265h:
    795	0065  C3			 ret
    796	0066			     place_00266h:
    797	0066  50			 push	 ax
    798	0067			     place_00267h:
Turbo Assembler	 Version 4.1	    12/29/24 23:45:51	    Page 15
PODFS.ASM



    799	0067  52			 push	 dx
    800	0068			     place_00268h:
    801	0068  B4 09			 mov	 ah, 009h
    802	006A			     place_0026ah:
    803	006A  BA 04C6			 mov	 dx, 004c6h
    804	006D			     place_0026dh:
    805	006D  CD 21			 int	 021h
    806	006F			     place_0026fh:
    807	006F  BA 0535			 mov	 dx, 00535h
    808	0072			     place_00272h:
    809	0072  CD 21			 int	 021h
    810	0074			     place_00274h:
    811	0074  5A			 pop	 dx
    812	0075			     place_00275h:
    813	0075  58			 pop	 ax
    814	0076			     place_00276h:
    815	0076  C3			 ret
    816	0077			     place_00277h:
    817	0077  50			 push	 ax
    818	0078			     place_00278h:
    819	0078  52			 push	 dx
    820	0079			     place_00279h:
    821	0079  B4 09			 mov	 ah, 009h
    822	007B			     place_0027bh:
    823	007B  BA 04C6			 mov	 dx, 004c6h
    824	007E			     place_0027eh:
    825	007E  CD 21			 int	 021h
    826	0080			     place_00280h:
    827	0080  BA 0556			 mov	 dx, 00556h
    828	0083			     place_00283h:
    829	0083  CD 21			 int	 021h
    830	0085			     place_00285h:
    831	0085  5A			 pop	 dx
    832	0086			     place_00286h:
    833	0086  58			 pop	 ax
    834	0087			     place_00287h:
    835	0087  C3			 ret
    836	0088			     place_00288h:
    837	0088  50			 push	 ax
    838	0089			     place_00289h:
    839	0089  52			 push	 dx
    840	008A			     place_0028ah:
    841	008A  B4 09			 mov	 ah, 009h
    842	008C			     place_0028ch:
    843	008C  BA 04C6			 mov	 dx, 004c6h
    844	008F			     place_0028fh:
    845	008F  CD 21			 int	 021h
    846	0091			     place_00291h:
    847	0091  BA 056E			 mov	 dx, 0056eh
    848	0094			     place_00294h:
    849	0094  CD 21			 int	 021h
    850	0096			     place_00296h:
    851	0096  5A			 pop	 dx
    852	0097			     place_00297h:
    853	0097  58			 pop	 ax
    854	0098			     place_00298h:
    855	0098  C3			 ret
Turbo Assembler	 Version 4.1	    12/29/24 23:45:51	    Page 16
PODFS.ASM



    856	0099			     place_00299h:
    857	0099  50			 push	 ax
    858	009A			     place_0029ah:
    859	009A  52			 push	 dx
    860	009B			     place_0029bh:
    861	009B  B4 09			 mov	 ah, 009h
    862	009D			     place_0029dh:
    863	009D  BA 04C6			 mov	 dx, 004c6h
    864	00A0			     place_002a0h:
    865	00A0  CD 21			 int	 021h
    866	00A2			     place_002a2h:
    867	00A2  BA 05B4			 mov	 dx, 005b4h
    868	00A5			     place_002a5h:
    869	00A5  CD 21			 int	 021h
    870	00A7			     place_002a7h:
    871	00A7  5A			 pop	 dx
    872	00A8			     place_002a8h:
    873	00A8  58			 pop	 ax
    874	00A9			     place_002a9h:
    875	00A9  C3			 ret
    876	00AA			     place_002aah:
    877	00AA  50			 push	 ax
    878	00AB			     place_002abh:
    879	00AB  52			 push	 dx
    880	00AC			     place_002ach:
    881	00AC  B4 09			 mov	 ah, 009h
    882	00AE			     place_002aeh:
    883	00AE  BA 0487			 mov	 dx, 00487h
    884	00B1			     place_002b1h:
    885	00B1  CD 21			 int	 021h
    886	00B3			     place_002b3h:
    887	00B3  B4 08			 mov	 ah, 008h
    888	00B5			     place_002b5h:
    889	00B5  CD 21			 int	 021h
    890	00B7			     place_002b7h:
    891	00B7  B4 09			 mov	 ah, 009h
    892	00B9			     place_002b9h:
    893	00B9  BA 04A4			 mov	 dx, 004a4h
    894	00BC			     place_002bch:
    895	00BC  CD 21			 int	 021h
    896	00BE			     place_002beh:
    897	00BE  5A			 pop	 dx
    898	00BF			     place_002bfh:
    899	00BF  58			 pop	 ax
    900	00C0			     place_002c0h:
    901	00C0  C3			 ret
    902	00C1			     place_002c1h:
    903	00C1  50			 push	 ax
    904	00C2			     place_002c2h:
    905	00C2  52			 push	 dx
    906	00C3			     place_002c3h:
    907	00C3  B4 09			 mov	 ah, 009h
    908	00C5			     place_002c5h:
    909	00C5  BA 05E8			 mov	 dx, 005e8h
    910	00C8			     place_002c8h:
    911	00C8  CD 21			 int	 021h
    912	00CA			     place_002cah:
Turbo Assembler	 Version 4.1	    12/29/24 23:45:51	    Page 17
PODFS.ASM



    913	00CA  BA 0639			 mov	 dx, 00639h
    914	00CD			     place_002cdh:
    915	00CD  CD 21			 int	 021h
    916	00CF			     place_002cfh:
    917	00CF  E8 FFD8			 call	 place_002aah
    918	00D2			     place_002d2h:
    919	00D2  BA 06AA			 mov	 dx, 006aah
    920	00D5			     place_002d5h:
    921	00D5  CD 21			 int	 021h
    922	00D7			     place_002d7h:
    923	00D7  E8 FFD0			 call	 place_002aah
    924	00DA			     place_002dah:
    925	00DA  BA 0762			 mov	 dx, 00762h
    926	00DD			     place_002ddh:
    927	00DD  CD 21			 int	 021h
    928	00DF			     place_002dfh:
    929	00DF  E8 FFC8			 call	 place_002aah
    930	00E2			     place_002e2h:
    931	00E2  BA 087A			 mov	 dx, 0087ah
    932	00E5			     place_002e5h:
    933	00E5  CD 21			 int	 021h
    934	00E7			     place_002e7h:
    935	00E7  E8 FFC0			 call	 place_002aah
    936	00EA			     place_002eah:
    937	00EA  BA 098D			 mov	 dx, 0098dh
    938	00ED			     place_002edh:
    939	00ED  CD 21			 int	 021h
    940	00EF			     place_002efh:
    941	00EF  E8 FFB8			 call	 place_002aah
    942	00F2			     place_002f2h:
    943	00F2  BA 0B2D			 mov	 dx, 00b2dh
    944	00F5			     place_002f5h:
    945	00F5  CD 21			 int	 021h
    946	00F7			     place_002f7h:
    947	00F7  E8 FFB0			 call	 place_002aah
    948	00FA			     place_002fah:
    949	00FA  BA 0C91			 mov	 dx, 00c91h
    950	00FD			     place_002fdh:
    951	00FD  CD 21			 int	 021h
    952				     ;;	 SCANNING...
    953	00FF			     place_002ffh:
    954	00FF  E8 FFA8			 call	 place_002aah
    955	0102			     place_00302h:
    956	0102  BA 0DC7			 mov	 dx, 00dc7h
    957	0105			     place_00305h:
    958	0105  CD 21			 int	 021h
    959	0107			     place_00307h:
    960	0107  E8 FFA0			 call	 place_002aah
    961	010A			     place_0030ah:
    962	010A  BA 0DF6			 mov	 dx, 00df6h
    963	010D			     place_0030dh:
    964	010D  CD 21			 int	 021h
    965	010F			     place_0030fh:
    966	010F  5A			 pop	 dx
    967	0110			     place_00310h:
    968	0110  58			 pop	 ax
    969	0111			     place_00311h:
Turbo Assembler	 Version 4.1	    12/29/24 23:45:51	    Page 18
PODFS.ASM



    970	0111  C3			 ret
    971	0112			     place_00312h:
    972	0112  50			 push	 ax
    973	0113			     place_00313h:
    974	0113  57			 push	 di
    975	0114			     place_00314h:
    976	0114  56			 push	 si
    977	0115			     place_00315h:
    978	0115  26: 8A 05			 mov	 al, byte ptr es:[ di ]
    979	0118			     place_00318h:
    980	0118  3A 04			 cmp	 al, byte ptr ds:[ si ]
    981	011A			     place_0031ah:
    982	011A  75 28			 jne	 place_00343h
    983	011C			     place_0031ch:
    984	011C  46			 inc	 si
    985	011D			     place_0031dh:
    986	011D  47			 inc	 di
    987	011E			     place_0031eh:
    988	011E  80 3C 00			 cmp	 byte ptr ds:[ si ], 000h
    989	0121			     place_00321h:
    990	0121  74 08			 je	 place_0032bh
    991	0123			     place_00323h:
    992	0123  26: 80 3D	00		 cmp	 byte ptr es:[ di ], 000h
    993	0127			     place_00327h:
    994	0127  74 1B			 je	 place_00343h
    995	0129			     place_00329h:
    996	0129  EB EA			 jmp	 place_00315h
    997	012B			     place_0032bh:
    998	012B  26: 80 3D	00		 cmp	 byte ptr es:[ di ], 000h
    999	012F			     place_0032fh:
   1000	012F  74 10			 je	 place_00340h
   1001	0131			     place_00331h:
   1002	0131  26: 80 3D	0D		 cmp	 byte ptr es:[ di ], 00dh
   1003	0135			     place_00335h:
   1004	0135  74 0A			 je	 place_00340h
   1005	0137			     place_00337h:
   1006	0137  26: 80 3D	20		 cmp	 byte ptr es:[ di ], 020h
   1007	013B			     place_0033bh:
   1008	013B  74 04			 je	 place_00340h
   1009	013D			     place_0033dh:
   1010	013D  EB 05 90			 jmp	 place_00343h
   1011	0140			     place_0033fh:
   1012	0140  90			 nop
   1013	0141			     place_00340h:
   1014	0141  BB 0001			 mov	 bx, 00001h
   1015	0144			     place_00343h:
   1016	0144  5E			 pop	 si
   1017	0145			     place_00344h:
   1018	0145  5F			 pop	 di
   1019	0146			     place_00345h:
   1020	0146  58			 pop	 ax
   1021	0147			     place_00346h:
   1022	0147  C3			 ret
   1023	0148			     place_00347h:
   1024	0148  56			 push	 si
   1025	0149			     place_00348h:
   1026	0149  57			 push	 di
Turbo Assembler	 Version 4.1	    12/29/24 23:45:51	    Page 19
PODFS.ASM



   1027	014A			     place_00349h:
   1028	014A  BE 0471			 mov	 si, 00471h
   1029	014D			     place_0034ch:
   1030	014D  E8 FFC2			 call	 place_00312h
   1031	0150			     place_0034fh:
   1032	0150  83 FB 01			 cmp	 bx, 00001h
   1033	0153			     place_00352h:
   1034	0153  74 35			 je	 place_00389h
   1035	0155			     place_00354h:
   1036	0155  BE 0474			 mov	 si, 00474h
   1037	0158			     place_00357h:
   1038	0158  E8 FFB7			 call	 place_00312h
   1039	015B			     place_0035ah:
   1040	015B  83 FB 01			 cmp	 bx, 00001h
   1041	015E			     place_0035dh:
   1042	015E  74 2A			 je	 place_00389h
   1043	0160			     place_0035fh:
   1044	0160  BE 0477			 mov	 si, 00477h
   1045	0163			     place_00362h:
   1046	0163  E8 FFAC			 call	 place_00312h
   1047	0166			     place_00365h:
   1048	0166  83 FB 01			 cmp	 bx, 00001h
   1049	0169			     place_00368h:
   1050	0169  74 1F			 je	 place_00389h
   1051	016B			     place_0036ah:
   1052	016B  BE 047A			 mov	 si, 0047ah
   1053	016E			     place_0036dh:
   1054	016E  E8 FFA1			 call	 place_00312h
   1055	0171			     place_00370h:
   1056	0171  83 FB 01			 cmp	 bx, 00001h
   1057	0174			     place_00373h:
   1058	0174  74 14			 je	 place_00389h
   1059	0176			     place_00375h:
   1060	0176  BE 047D			 mov	 si, 0047dh
   1061	0179			     place_00378h:
   1062	0179  E8 FF96			 call	 place_00312h
   1063	017C			     place_0037bh:
   1064	017C  83 FB 01			 cmp	 bx, 00001h
   1065	017F			     place_0037eh:
   1066	017F  74 09			 je	 place_00389h
   1067	0181			     place_00380h:
   1068	0181  BE 0480			 mov	 si, 00480h
   1069	0184			     place_00383h:
   1070	0184  E8 FF8B			 call	 place_00312h
   1071	0187			     place_00386h:
   1072	0187  83 FB 01			 cmp	 bx, 00001h
   1073	018A			     place_00389h:
   1074	018A  5F			 pop	 di
   1075	018B			     place_0038ah:
   1076	018B  5E			 pop	 si
   1077	018C			     place_0038bh:
   1078	018C  C3			 ret
   1079	018D			     place_0038ch:
   1080	018D  50			 push	 ax
   1081	018E			     place_0038dh:
   1082	018E  51			 push	 cx
   1083	018F			     place_0038eh:
Turbo Assembler	 Version 4.1	    12/29/24 23:45:51	    Page 20
PODFS.ASM



   1084	018F  52			 push	 dx
   1085	0190			     place_0038fh:
   1086	0190  B4 3C			 mov	 ah, 03ch
   1087	0192			     place_00391h:
   1088	0192  33 C9			 xor	 cx, cx
   1089	0194			     place_00393h:
   1090	0194  BA 00FF			 mov	 dx, 000ffh
   1091	0197			     place_00396h:
   1092	0197  CD 21			 int	 021h
   1093	0199			     place_00398h:
   1094	0199  73 09			 jae	 place_003a3h
   1095	019B			     place_0039ah:
   1096	019B  E8 FE95			 call	 place_00233h
   1097	019E			     place_0039dh:
   1098	019E  E8 FF20			 call	 place_002c1h
   1099	01A1			     place_003a0h:
   1100	01A1  E8 FE6B			 call	 place_0020fh
   1101	01A4			     place_003a3h:
   1102	01A4  A3 0201			 mov	 word ptr ds:[ 00201h ], ax
   1103	01A7			     place_003a6h:
   1104	01A7  5A			 pop	 dx
   1105	01A8			     place_003a7h:
   1106	01A8  59			 pop	 cx
   1107	01A9			     place_003a8h:
   1108	01A9  58			 pop	 ax
   1109	01AA			     place_003a9h:
   1110	01AA  C3			 ret
   1111	01AB			     place_003aah:
   1112	01AB  26: 8A 05			 mov	 al, byte ptr es:[ di ]
   1113	01AE			     place_003adh:
   1114	01AE  3C 20			 cmp	 al, 020h
   1115	01B0			     place_003afh:
   1116	01B0  74 01			 je	 place_003b2h
   1117	01B2			     place_003b1h:
   1118	01B2  C3			 ret
   1119	01B3			     place_003b2h:
   1120	01B3  47			 inc	 di
   1121	01B4			     place_003b3h:
   1122	01B4  EB F5			 jmp	 place_003aah
   1123	01B6			     place_003b5h:
   1124	01B6  C3			 ret
   1125	01B7			     place_003b6h:
   1126	01B7  50			 push	 ax
   1127	01B8			     place_003b7h:
   1128	01B8  52			 push	 dx
   1129	01B9			     place_003b8h:
   1130	01B9  B8 3D00			 mov	 ax, 03d00h
   1131	01BC			     place_003bbh:
   1132	01BC  BA 0000			 mov	 dx, 00000h
   1133	01BF			     place_003beh:
   1134	01BF  CD 21			 int	 021h
   1135	01C1			     place_003c0h:
   1136	01C1  73 09			 jae	 place_003cbh
   1137	01C3			     place_003c2h:
   1138	01C3  E8 FE5C			 call	 place_00222h
   1139	01C6			     place_003c5h:
   1140	01C6  E8 FEF8			 call	 place_002c1h
Turbo Assembler	 Version 4.1	    12/29/24 23:45:51	    Page 21
PODFS.ASM



   1141	01C9			     place_003c8h:
   1142	01C9  E8 FE43			 call	 place_0020fh
   1143	01CC			     place_003cbh:
   1144	01CC  A3 0201			 mov	 word ptr ds:[ 00201h ], ax
   1145	01CF			     place_003ceh:
   1146	01CF  5A			 pop	 dx
   1147	01D0			     place_003cfh:
   1148	01D0  58			 pop	 ax
   1149	01D1			     place_003d0h:
   1150	01D1  C3			 ret
   1151	01D2			     place_003d1h:
   1152	01D2  50			 push	 ax
   1153	01D3			     place_003d2h:
   1154	01D3  52			 push	 dx
   1155	01D4			     place_003d3h:
   1156	01D4  E8 FFB6			 call	 place_0038ch
   1157	01D7			     place_003d6h:
   1158	01D7  5A			 pop	 dx
   1159	01D8			     place_003d7h:
   1160	01D8  58			 pop	 ax
   1161	01D9			     place_003d8h:
   1162	01D9  C3			 ret
   1163	01DA			     place_003d9h:
   1164	01DA  50			 push	 ax
   1165	01DB			     place_003dah:
   1166	01DB  26: 8A 05			 mov	 al, byte ptr es:[ di ]
   1167	01DE			     place_003ddh:
   1168	01DE  3C 22			 cmp	 al, 022h
   1169	01E0			     place_003dfh:
   1170	01E0  75 07			 jne	 place_003e8h
   1171	01E2			     place_003e1h:
   1172	01E2  BB 0001			 mov	 bx, 00001h
   1173	01E5			     place_003e4h:
   1174	01E5  88 04			 mov	 byte ptr ds:[ si ], al
   1175	01E7			     place_003e6h:
   1176	01E7  46			 inc	 si
   1177	01E8			     place_003e7h:
   1178	01E8  47			 inc	 di
   1179	01E9			     place_003e8h:
   1180	01E9  26: 8A 05			 mov	 al, byte ptr es:[ di ]
   1181	01EC			     place_003ebh:
   1182	01EC  3C 00			 cmp	 al, 000h
   1183	01EE			     place_003edh:
   1184	01EE  74 1A			 je	 place_00409h
   1185	01F0			     place_003efh:
   1186	01F0  3C 0D			 cmp	 al, 00dh
   1187	01F2			     place_003f1h:
   1188	01F2  74 16			 je	 place_00409h
   1189	01F4			     place_003f3h:
   1190	01F4  3C 22			 cmp	 al, 022h
   1191	01F6			     place_003f5h:
   1192	01F6  74 0F			 je	 place_00406h
   1193	01F8			     place_003f7h:
   1194	01F8  3C 20			 cmp	 al, 020h
   1195	01FA			     place_003f9h:
   1196	01FA  75 05			 jne	 place_00400h
   1197	01FC			     place_003fbh:
Turbo Assembler	 Version 4.1	    12/29/24 23:45:51	    Page 22
PODFS.ASM



   1198	01FC  83 FB 01			 cmp	 bx, 00001h
   1199				     ;;	 SCANNING...
   1200	01FF			     place_003feh:
   1201	01FF  75 09			 jne	 place_00409h
   1202	0201			     place_00400h:
   1203	0201  88 04			 mov	 byte ptr ds:[ si ], al
   1204	0203			     place_00402h:
   1205	0203  47			 inc	 di
   1206	0204			     place_00403h:
   1207	0204  46			 inc	 si
   1208	0205			     place_00404h:
   1209	0205  EB E2			 jmp	 place_003e8h
   1210	0207			     place_00406h:
   1211	0207  47			 inc	 di
   1212	0208			     place_00407h:
   1213	0208  88 04			 mov	 byte ptr ds:[ si ], al
   1214	020A			     place_00409h:
   1215	020A  46			 inc	 si
   1216	020B			     place_0040ah:
   1217	020B  C6 04 00			 mov	 byte ptr ds:[ si ], 000h
   1218	020E			     place_0040dh:
   1219	020E  58			 pop	 ax
   1220	020F			     place_0040eh:
   1221	020F  C3			 ret
   1222	0210			     place_0040fh:
   1223	0210  50			 push	 ax
   1224	0211			     place_00410h:
   1225	0211  53			 push	 bx
   1226	0212			     place_00411h:
   1227	0212  51			 push	 cx
   1228	0213			     place_00412h:
   1229	0213  52			 push	 dx
   1230	0214			     place_00413h:
   1231	0214  33 C0			 xor	 ax, ax
   1232	0216			     place_00415h:
   1233	0216  BB 000A			 mov	 bx, 0000ah
   1234	0219			     place_00418h:
   1235	0219  33 C9			 xor	 cx, cx
   1236	021B			     place_0041ah:
   1237	021B  26: 8A 0D			 mov	 cl, byte ptr es:[ di ]
   1238	021E			     place_0041dh:
   1239	021E  47			 inc	 di
   1240	021F			     place_0041eh:
   1241	021F  80 F9 00			 cmp	 cl, 000h
   1242	0222			     place_00421h:
   1243	0222  74 39			 je	 place_0045ch
   1244	0224			     place_00423h:
   1245	0224  80 F9 20			 cmp	 cl, 020h
   1246	0227			     place_00426h:
   1247	0227  74 34			 je	 place_0045ch
   1248	0229			     place_00428h:
   1249	0229  80 F9 0D			 cmp	 cl, 00dh
   1250	022C			     place_0042bh:
   1251	022C  74 2F			 je	 place_0045ch
   1252	022E			     place_0042dh:
   1253	022E  80 F9 30			 cmp	 cl, 030h
   1254	0231			     place_00430h:
Turbo Assembler	 Version 4.1	    12/29/24 23:45:51	    Page 23
PODFS.ASM



   1255	0231  72 18			 jb	 place_0044ah
   1256	0233			     place_00432h:
   1257	0233  80 F9 39			 cmp	 cl, 039h
   1258	0236			     place_00435h:
   1259	0236  77 13			 ja	 place_0044ah
   1260	0238			     place_00437h:
   1261	0238  F7 E3			 mul	 bx
   1262	023A			     place_00439h:
   1263	023A  3D 00FF			 cmp	 ax, 000ffh
   1264	023D			     place_0043ch:
   1265	023D  77 15			 ja	 place_00453h
   1266	023F			     place_0043eh:
   1267	023F  80 E9 30			 sub	 cl, 030h
   1268	0242			     place_00441h:
   1269	0242  03 C1			 add	 ax, cx
   1270	0244			     place_00443h:
   1271	0244  3D 00FF			 cmp	 ax, 000ffh
   1272	0247			     place_00446h:
   1273	0247  77 0B			 ja	 place_00453h
   1274	0249			     place_00448h:
   1275	0249  EB D0			 jmp	 place_0041ah
   1276	024B			     place_0044ah:
   1277	024B  E8 FE3A			 call	 place_00288h
   1278	024E			     place_0044dh:
   1279	024E  E8 FE70			 call	 place_002c1h
   1280	0251			     place_00450h:
   1281	0251  E8 FDBB			 call	 place_0020fh
   1282	0254			     place_00453h:
   1283	0254  E8 FE42			 call	 place_00299h
   1284	0257			     place_00456h:
   1285	0257  E8 FE67			 call	 place_002c1h
   1286	025A			     place_00459h:
   1287	025A  E8 FDB2			 call	 place_0020fh
   1288	025D			     place_0045ch:
   1289	025D  3C 00			 cmp	 al, 000h
   1290	025F			     place_0045eh:
   1291	025F  75 03			 jne	 place_00463h
   1292	0261			     place_00460h:
   1293	0261  E8 FE24			 call	 place_00288h
   1294	0264			     place_00463h:
   1295	0264  A2 0200			 mov	 byte ptr ds:[ 00200h ], al
   1296	0267			     place_00466h:
   1297	0267  5A			 pop	 dx
   1298	0268			     place_00467h:
   1299	0268  59			 pop	 cx
   1300	0269			     place_00468h:
   1301	0269  5B			 pop	 bx
   1302	026A			     place_00469h:
   1303	026A  58			 pop	 ax
   1304	026B			     place_0046ah:
   1305	026B  C3			 ret
   1306	026C			     place_0046bh:
   1307	026C  50			 push	 ax
   1308	026D			     place_0046ch:
   1309	026D  53			 push	 bx
   1310	026E			     place_0046dh:
   1311	026E  51			 push	 cx
Turbo Assembler	 Version 4.1	    12/29/24 23:45:51	    Page 24
PODFS.ASM



   1312	026F			     place_0046eh:
   1313	026F  52			 push	 dx
   1314	0270			     place_0046fh:
   1315	0270  56			 push	 si
   1316	0271			     place_00470h:
   1317	0271  57			 push	 di
   1318	0272			     place_00471h:
   1319	0272  26: A0 0200		 mov	 al, byte ptr es:[ 00200h ]
   1320	0276			     place_00475h:
   1321	0276  3C 00			 cmp	 al, 000h
   1322	0278			     place_00477h:
   1323	0278  75 09			 jne	 place_00482h
   1324	027A			     place_00479h:
   1325	027A  E8 FDE9			 call	 place_00266h
   1326	027D			     place_0047ch:
   1327	027D  E8 FE41			 call	 place_002c1h
   1328	0280			     place_0047fh:
   1329	0280  E8 FD8C			 call	 place_0020fh
   1330	0283			     place_00482h:
   1331	0283  BF 0081			 mov	 di, 00081h
   1332	0286			     place_00485h:
   1333	0286  E8 FF22			 call	 place_003aah
   1334	0289			     place_00488h:
   1335	0289  E8 FEBC			 call	 place_00347h
   1336	028C			     place_0048bh:
   1337	028C  83 FB 01			 cmp	 bx, 00001h
   1338	028F			     place_0048eh:
   1339	028F  75 06			 jne	 place_00496h
   1340	0291			     place_00490h:
   1341	0291  E8 FE2D			 call	 place_002c1h
   1342	0294			     place_00493h:
   1343	0294  E8 FD78			 call	 place_0020fh
   1344	0297			     place_00496h:
   1345	0297  BE 0000			 mov	 si, 00000h
   1346	029A			     place_00499h:
   1347	029A  E8 FF3D			 call	 place_003d9h
   1348	029D			     place_0049ch:
   1349	029D  E8 FF0B			 call	 place_003aah
   1350	02A0			     place_0049fh:
   1351	02A0  BE 045C			 mov	 si, 0045ch
   1352	02A3			     place_004a2h:
   1353	02A3  E8 FF6A			 call	 place_0040fh
   1354	02A6			     place_004a5h:
   1355	02A6  E8 FF02			 call	 place_003aah
   1356	02A9			     place_004a8h:
   1357	02A9  BE 00FF			 mov	 si, 000ffh
   1358	02AC			     place_004abh:
   1359	02AC  E8 FF2B			 call	 place_003d9h
   1360	02AF			     place_004aeh:
   1361	02AF  E8 FEF9			 call	 place_003aah
   1362	02B2			     place_004b1h:
   1363	02B2  33 C0			 xor	 ax, ax
   1364	02B4			     place_004b3h:
   1365	02B4  26: A0 0300		 mov	 al, byte ptr es:[ 00300h ]
   1366	02B8			     place_004b7h:
   1367	02B8  05 0081			 add	 ax, 00081h
   1368	02BB			     place_004bah:
Turbo Assembler	 Version 4.1	    12/29/24 23:45:51	    Page 25
PODFS.ASM



   1369	02BB  3B C7			 cmp	 ax, di
   1370	02BD			     place_004bch:
   1371	02BD  74 09			 je	 place_004c7h
   1372	02BF			     place_004beh:
   1373	02BF  E8 FDB5			 call	 place_00277h
   1374	02C2			     place_004c1h:
   1375	02C2  E8 FDFC			 call	 place_002c1h
   1376	02C5			     place_004c4h:
   1377	02C5  E8 FD47			 call	 place_0020fh
   1378	02C8			     place_004c7h:
   1379	02C8  5F			 pop	 di
   1380	02C9			     place_004c8h:
   1381	02C9  5E			 pop	 si
   1382	02CA			     place_004c9h:
   1383	02CA  5A			 pop	 dx
   1384	02CB			     place_004cah:
   1385	02CB  59			 pop	 cx
   1386	02CC			     place_004cbh:
   1387	02CC  5B			 pop	 bx
   1388	02CD			     place_004cch:
   1389	02CD  58			 pop	 ax
   1390	02CE			     place_004cdh:
   1391	02CE  C3			 ret
   1392	02CF			     place_004ceh:
   1393	02CF  50			 push	 ax
   1394	02D0			     place_004cfh:
   1395	02D0  53			 push	 bx
   1396	02D1			     place_004d0h:
   1397	02D1  51			 push	 cx
   1398	02D2			     place_004d1h:
   1399	02D2  52			 push	 dx
   1400	02D3			     place_004d2h:
   1401	02D3  56			 push	 si
   1402	02D4			     place_004d3h:
   1403	02D4  BE 045D			 mov	 si, 0045dh
   1404	02D7			     place_004d6h:
   1405	02D7  8B 0C			 mov	 cx, word ptr ds:[ si ]
   1406	02D9			     place_004d8h:
   1407	02D9  8B 54 02			 mov	 dx, word ptr ds:[ si +	002h ]
   1408	02DC			     place_004dbh:
   1409	02DC  02 D4			 add	 dl, ah
   1410	02DE			     place_004ddh:
   1411	02DE  80 D6 00			 adc	 dh, 000h
   1412	02E1			     place_004e0h:
   1413	02E1  83 D1 00			 adc	 cx, 00000h
   1414	02E4			     place_004e3h:
   1415	02E4  B8 4200			 mov	 ax, 04200h
   1416	02E7			     place_004e6h:
   1417	02E7  8B 1E 01FE		 mov	 bx, word ptr ds:[ 001feh ]
   1418	02EB			     place_004eah:
   1419	02EB  CD 21			 int	 021h
   1420	02ED			     place_004ech:
   1421	02ED  8B 14			 mov	 dx, word ptr ds:[ si ]
   1422	02EF			     place_004eeh:
   1423	02EF  8B 44 02			 mov	 ax, word ptr ds:[ si +	002h ]
   1424	02F2			     place_004f1h:
   1425	02F2  5E			 pop	 si
Turbo Assembler	 Version 4.1	    12/29/24 23:45:51	    Page 26
PODFS.ASM



   1426	02F3			     place_004f2h:
   1427	02F3  5A			 pop	 dx
   1428	02F4			     place_004f3h:
   1429	02F4  59			 pop	 cx
   1430	02F5			     place_004f4h:
   1431	02F5  5B			 pop	 bx
   1432	02F6			     place_004f5h:
   1433	02F6  58			 pop	 ax
   1434	02F7			     place_004f6h:
   1435	02F7  C3			 ret
   1436	02F8			     place_004f7h:
   1437	02F8  50			 push	 ax
   1438	02F9			     place_004f8h:
   1439	02F9  53			 push	 bx
   1440	02FA			     place_004f9h:
   1441	02FA  51			 push	 cx
   1442	02FB			     place_004fah:
   1443	02FB  52			 push	 dx
   1444	02FC			     place_004fbh:
   1445	02FC  57			 push	 di
   1446	02FD			     place_004fch:
   1447	02FD  33 C9			 xor	 cx, cx
   1448				     ;;	 SCANNING...
   1449	02FF			     place_004feh:
   1450	02FF  8A CC			 mov	 cl, ah
   1451	0301			     place_00500h:
   1452	0301  BA 0330			 mov	 dx, 00330h
   1453	0304			     place_00503h:
   1454	0304  B4 40			 mov	 ah, 040h
   1455	0306			     place_00505h:
   1456	0306  80 FF 00			 cmp	 bh, 000h
   1457	0309			     place_00508h:
   1458	0309  74 06			 je	 place_00510h
   1459	030B			     place_0050ah:
   1460	030B  83 C1 02			 add	 cx, 00002h
   1461	030E			     place_0050dh:
   1462	030E  83 EA 02			 sub	 dx, 00002h
   1463	0311			     place_00510h:
   1464	0311  8B 1E 0200		 mov	 bx, word ptr ds:[ 00200h ]
   1465	0315			     place_00514h:
   1466	0315  CD 21			 int	 021h
   1467	0317			     place_00516h:
   1468	0317  72 04			 jb	 place_0051bh
   1469	0319			     place_00518h:
   1470	0319  EB 08 90			 jmp	 place_00521h
   1471	031C			     place_0051ah:
   1472	031C  90			 nop
   1473	031D			     place_0051bh:
   1474	031D  E8 FD35			 call	 place_00255h
   1475	0320			     place_0051eh:
   1476	0320  E8 FCEC			 call	 place_0020fh
   1477	0323			     place_00521h:
   1478	0323  5F			 pop	 di
   1479	0324			     place_00522h:
   1480	0324  5A			 pop	 dx
   1481	0325			     place_00523h:
   1482	0325  59			 pop	 cx
Turbo Assembler	 Version 4.1	    12/29/24 23:45:51	    Page 27
PODFS.ASM



   1483	0326			     place_00524h:
   1484	0326  5B			 pop	 bx
   1485	0327			     place_00525h:
   1486	0327  58			 pop	 ax
   1487	0328			     place_00526h:
   1488	0328  C3			 ret
   1489	0329			     place_00527h:
   1490	0329  50			 push	 ax
   1491	032A			     place_00528h:
   1492	032A  53			 push	 bx
   1493	032B			     place_00529h:
   1494	032B  51			 push	 cx
   1495	032C			     place_0052ah:
   1496	032C  52			 push	 dx
   1497	032D			     place_0052bh:
   1498	032D  56			 push	 si
   1499	032E			     place_0052ch:
   1500	032E  57			 push	 di
   1501	032F			     place_0052dh:
   1502	032F  B4 3F			 mov	 ah, 03fh
   1503	0331			     place_0052fh:
   1504	0331  53			 push	 bx
   1505	0332			     place_00530h:
   1506	0332  8B 1E 01FE		 mov	 bx, word ptr ds:[ 001feh ]
   1507	0336			     place_00534h:
   1508	0336  BA 0202			 mov	 dx, 00202h
   1509	0339			     place_00537h:
   1510	0339  33 C9			 xor	 cx, cx
   1511	033B			     place_00539h:
   1512	033B  8A 0E 045C		 mov	 cl, byte ptr ds:[ 0045ch ]
   1513	033F			     place_0053dh:
   1514	033F  CD 21			 int	 021h
   1515	0341			     place_0053fh:
   1516	0341  5B			 pop	 bx
   1517	0342			     place_00540h:
   1518	0342  72 4A			 jb	 place_0058bh
   1519	0344			     place_00542h:
   1520	0344  3D 0000			 cmp	 ax, 00000h
   1521	0347			     place_00545h:
   1522	0347  74 3E			 je	 place_00584h
   1523	0349			     place_00547h:
   1524	0349  BE 0202			 mov	 si, 00202h
   1525	034C			     place_0054ah:
   1526	034C  BF 0330			 mov	 di, 00330h
   1527	034F			     place_0054dh:
   1528	034F  8A D8			 mov	 bl, al
   1529	0351			     place_0054fh:
   1530	0351  8A 04			 mov	 al, byte ptr ds:[ si ]
   1531	0353			     place_00551h:
   1532	0353  3C 00			 cmp	 al, 000h
   1533	0355			     place_00553h:
   1534	0355  75 09			 jne	 place_0055dh
   1535	0357			     place_00555h:
   1536	0357  E8 FF9E			 call	 place_004f7h
   1537	035A			     place_00558h:
   1538	035A  B7 01			 mov	 bh, 001h
   1539	035C			     place_0055ah:
Turbo Assembler	 Version 4.1	    12/29/24 23:45:51	    Page 28
PODFS.ASM



   1540	035C  EB 29 90			 jmp	 place_00584h
   1541	035F			     place_0055ch:
   1542	035F  90			 nop
   1543	0360			     place_0055dh:
   1544	0360  3C 0D			 cmp	 al, 00dh
   1545	0362			     place_0055fh:
   1546	0362  75 0D			 jne	 place_0056eh
   1547	0364			     place_00561h:
   1548	0364  E8 FF91			 call	 place_004f7h
   1549	0367			     place_00564h:
   1550	0367  80 C4 02			 add	 ah, 002h
   1551	036A			     place_00567h:
   1552	036A  E8 FF62			 call	 place_004ceh
   1553	036D			     place_0056ah:
   1554	036D  B7 01			 mov	 bh, 001h
   1555	036F			     place_0056ch:
   1556	036F  EB BE			 jmp	 place_0052dh
   1557	0371			     place_0056eh:
   1558	0371  88 05			 mov	 byte ptr ds:[ di ], al
   1559	0373			     place_00570h:
   1560	0373  46			 inc	 si
   1561	0374			     place_00571h:
   1562	0374  47			 inc	 di
   1563	0375			     place_00572h:
   1564	0375  FE C4			 inc	 ah
   1565	0377			     place_00574h:
   1566	0377  3A E3			 cmp	 ah, bl
   1567	0379			     place_00576h:
   1568	0379  75 0A			 jne	 place_00582h
   1569	037B			     place_00578h:
   1570	037B  E8 FF7A			 call	 place_004f7h
   1571	037E			     place_0057bh:
   1572	037E  B7 01			 mov	 bh, 001h
   1573	0380			     place_0057dh:
   1574	0380  E8 FF4C			 call	 place_004ceh
   1575	0383			     place_00580h:
   1576	0383  EB AA			 jmp	 place_0052dh
   1577	0385			     place_00582h:
   1578	0385  E2 CA			 loop	 place_0054fh
   1579	0387			     place_00584h:
   1580	0387  5F			 pop	 di
   1581	0388			     place_00585h:
   1582	0388  5E			 pop	 si
   1583	0389			     place_00586h:
   1584	0389  5A			 pop	 dx
   1585	038A			     place_00587h:
   1586	038A  59			 pop	 cx
   1587	038B			     place_00588h:
   1588	038B  5B			 pop	 bx
   1589	038C			     place_00589h:
   1590	038C  58			 pop	 ax
   1591	038D			     place_0058ah:
   1592	038D  C3			 ret
   1593	038E			     place_0058bh:
   1594	038E  E8 FCB3			 call	 place_00244h
   1595	0391			     place_0058eh:
   1596	0391  E8 FC7B			 call	 place_0020fh
Turbo Assembler	 Version 4.1	    12/29/24 23:45:51	    Page 29
PODFS.ASM



   1597	0394			     place_00591h:
   1598	0394  B8 003B			 mov	 ax, 0003bh
   1599	0397			     place_00594h:
   1600	0397  8E D8			 mov	 ds, ax
   1601	0399			     place_00596h:
   1602	0399  BF 0081			 mov	 di, 00081h
   1603	039C			     place_00599h:
   1604	039C  E8 FECD			 call	 place_0046bh
   1605	039F			     place_0059ch:
   1606	039F  E8 FE15			 call	 place_003b6h
   1607	03A2			     place_0059fh:
   1608	03A2  E8 FE2D			 call	 place_003d1h
   1609	03A5			     place_005a2h:
   1610	03A5  E8 FF81			 call	 place_00527h
   1611	03A8			     place_005a5h:
   1612	03A8  E8 FC64			 call	 place_0020fh
   1613	03AB			     place_005a8h:
   1614	03AB  00 00			 add	 byte ptr ds:[ bx + si ], al
   1615	03AD			     place_005aah:
   1616	03AD  00 00			 add	 byte ptr ds:[ bx + si ], al
   1617	03AF			     place_005ach:
   1618	03AF  00 00			 add	 byte ptr ds:[ bx + si ], al
   1619	03B1			     place_005aeh:
   1620	03B1  00 00			 add	 byte ptr ds:[ bx + si ], al
   1621				     END
Turbo Assembler	 Version 4.1	    12/29/24 23:45:51	    Page 30
Symbol Table




Symbol Name			  Type	 Value

??DATE				  Text	 "12/29/24"
??FILENAME			  Text	 "PODFS	  "
??TIME				  Text	 "23:45:50"
??VERSION			  Number 040A
@32BIT				  Text	 0
@CODE				  Text	 _TEXT
@CODESIZE			  Text	 0
@CPU				  Text	 0101H
@CURSEG				  Text	 _TEXT
@DATA				  Text	 DGROUP
@DATASIZE			  Text	 0
@FILENAME			  Text	 PODFS
@INTERFACE			  Text	 000H
@MODEL				  Text	 2
@STACK				  Text	 DGROUP
@WORDSIZE			  Text	 2
PLACE_00200H			  Near	 _TEXT:0000
PLACE_00201H			  Near	 _TEXT:0001
PLACE_00202H			  Near	 _TEXT:0002
PLACE_00204H			  Near	 _TEXT:0004
PLACE_00207H			  Near	 _TEXT:0007
PLACE_00209H			  Near	 _TEXT:0009
PLACE_0020CH			  Near	 _TEXT:000C
PLACE_0020DH			  Near	 _TEXT:000D
PLACE_0020EH			  Near	 _TEXT:000E
PLACE_0020FH			  Near	 _TEXT:000F
PLACE_00211H			  Near	 _TEXT:0011
PLACE_00215H			  Near	 _TEXT:0015
PLACE_00217H			  Near	 _TEXT:0017
PLACE_0021BH			  Near	 _TEXT:001B
PLACE_0021DH			  Near	 _TEXT:001D
PLACE_00220H			  Near	 _TEXT:0020
PLACE_00222H			  Near	 _TEXT:0022
PLACE_00223H			  Near	 _TEXT:0023
PLACE_00224H			  Near	 _TEXT:0024
PLACE_00226H			  Near	 _TEXT:0026
PLACE_00229H			  Near	 _TEXT:0029
PLACE_0022BH			  Near	 _TEXT:002B
PLACE_0022EH			  Near	 _TEXT:002E
PLACE_00230H			  Near	 _TEXT:0030
PLACE_00231H			  Near	 _TEXT:0031
PLACE_00232H			  Near	 _TEXT:0032
PLACE_00233H			  Near	 _TEXT:0033
PLACE_00234H			  Near	 _TEXT:0034
PLACE_00235H			  Near	 _TEXT:0035
PLACE_00237H			  Near	 _TEXT:0037
PLACE_0023AH			  Near	 _TEXT:003A
PLACE_0023CH			  Near	 _TEXT:003C
PLACE_0023FH			  Near	 _TEXT:003F
PLACE_00241H			  Near	 _TEXT:0041
PLACE_00242H			  Near	 _TEXT:0042
PLACE_00243H			  Near	 _TEXT:0043
PLACE_00244H			  Near	 _TEXT:0044
PLACE_00245H			  Near	 _TEXT:0045
Turbo Assembler	 Version 4.1	    12/29/24 23:45:51	    Page 31
Symbol Table



PLACE_00246H			  Near	 _TEXT:0046
PLACE_00248H			  Near	 _TEXT:0048
PLACE_0024BH			  Near	 _TEXT:004B
PLACE_0024DH			  Near	 _TEXT:004D
PLACE_00250H			  Near	 _TEXT:0050
PLACE_00252H			  Near	 _TEXT:0052
PLACE_00253H			  Near	 _TEXT:0053
PLACE_00254H			  Near	 _TEXT:0054
PLACE_00255H			  Near	 _TEXT:0055
PLACE_00256H			  Near	 _TEXT:0056
PLACE_00257H			  Near	 _TEXT:0057
PLACE_00259H			  Near	 _TEXT:0059
PLACE_0025CH			  Near	 _TEXT:005C
PLACE_0025EH			  Near	 _TEXT:005E
PLACE_00261H			  Near	 _TEXT:0061
PLACE_00263H			  Near	 _TEXT:0063
PLACE_00264H			  Near	 _TEXT:0064
PLACE_00265H			  Near	 _TEXT:0065
PLACE_00266H			  Near	 _TEXT:0066
PLACE_00267H			  Near	 _TEXT:0067
PLACE_00268H			  Near	 _TEXT:0068
PLACE_0026AH			  Near	 _TEXT:006A
PLACE_0026DH			  Near	 _TEXT:006D
PLACE_0026FH			  Near	 _TEXT:006F
PLACE_00272H			  Near	 _TEXT:0072
PLACE_00274H			  Near	 _TEXT:0074
PLACE_00275H			  Near	 _TEXT:0075
PLACE_00276H			  Near	 _TEXT:0076
PLACE_00277H			  Near	 _TEXT:0077
PLACE_00278H			  Near	 _TEXT:0078
PLACE_00279H			  Near	 _TEXT:0079
PLACE_0027BH			  Near	 _TEXT:007B
PLACE_0027EH			  Near	 _TEXT:007E
PLACE_00280H			  Near	 _TEXT:0080
PLACE_00283H			  Near	 _TEXT:0083
PLACE_00285H			  Near	 _TEXT:0085
PLACE_00286H			  Near	 _TEXT:0086
PLACE_00287H			  Near	 _TEXT:0087
PLACE_00288H			  Near	 _TEXT:0088
PLACE_00289H			  Near	 _TEXT:0089
PLACE_0028AH			  Near	 _TEXT:008A
PLACE_0028CH			  Near	 _TEXT:008C
PLACE_0028FH			  Near	 _TEXT:008F
PLACE_00291H			  Near	 _TEXT:0091
PLACE_00294H			  Near	 _TEXT:0094
PLACE_00296H			  Near	 _TEXT:0096
PLACE_00297H			  Near	 _TEXT:0097
PLACE_00298H			  Near	 _TEXT:0098
PLACE_00299H			  Near	 _TEXT:0099
PLACE_0029AH			  Near	 _TEXT:009A
PLACE_0029BH			  Near	 _TEXT:009B
PLACE_0029DH			  Near	 _TEXT:009D
PLACE_002A0H			  Near	 _TEXT:00A0
PLACE_002A2H			  Near	 _TEXT:00A2
PLACE_002A5H			  Near	 _TEXT:00A5
PLACE_002A7H			  Near	 _TEXT:00A7
PLACE_002A8H			  Near	 _TEXT:00A8
Turbo Assembler	 Version 4.1	    12/29/24 23:45:51	    Page 32
Symbol Table



PLACE_002A9H			  Near	 _TEXT:00A9
PLACE_002AAH			  Near	 _TEXT:00AA
PLACE_002ABH			  Near	 _TEXT:00AB
PLACE_002ACH			  Near	 _TEXT:00AC
PLACE_002AEH			  Near	 _TEXT:00AE
PLACE_002B1H			  Near	 _TEXT:00B1
PLACE_002B3H			  Near	 _TEXT:00B3
PLACE_002B5H			  Near	 _TEXT:00B5
PLACE_002B7H			  Near	 _TEXT:00B7
PLACE_002B9H			  Near	 _TEXT:00B9
PLACE_002BCH			  Near	 _TEXT:00BC
PLACE_002BEH			  Near	 _TEXT:00BE
PLACE_002BFH			  Near	 _TEXT:00BF
PLACE_002C0H			  Near	 _TEXT:00C0
PLACE_002C1H			  Near	 _TEXT:00C1
PLACE_002C2H			  Near	 _TEXT:00C2
PLACE_002C3H			  Near	 _TEXT:00C3
PLACE_002C5H			  Near	 _TEXT:00C5
PLACE_002C8H			  Near	 _TEXT:00C8
PLACE_002CAH			  Near	 _TEXT:00CA
PLACE_002CDH			  Near	 _TEXT:00CD
PLACE_002CFH			  Near	 _TEXT:00CF
PLACE_002D2H			  Near	 _TEXT:00D2
PLACE_002D5H			  Near	 _TEXT:00D5
PLACE_002D7H			  Near	 _TEXT:00D7
PLACE_002DAH			  Near	 _TEXT:00DA
PLACE_002DDH			  Near	 _TEXT:00DD
PLACE_002DFH			  Near	 _TEXT:00DF
PLACE_002E2H			  Near	 _TEXT:00E2
PLACE_002E5H			  Near	 _TEXT:00E5
PLACE_002E7H			  Near	 _TEXT:00E7
PLACE_002EAH			  Near	 _TEXT:00EA
PLACE_002EDH			  Near	 _TEXT:00ED
PLACE_002EFH			  Near	 _TEXT:00EF
PLACE_002F2H			  Near	 _TEXT:00F2
PLACE_002F5H			  Near	 _TEXT:00F5
PLACE_002F7H			  Near	 _TEXT:00F7
PLACE_002FAH			  Near	 _TEXT:00FA
PLACE_002FDH			  Near	 _TEXT:00FD
PLACE_002FFH			  Near	 _TEXT:00FF
PLACE_00302H			  Near	 _TEXT:0102
PLACE_00305H			  Near	 _TEXT:0105
PLACE_00307H			  Near	 _TEXT:0107
PLACE_0030AH			  Near	 _TEXT:010A
PLACE_0030DH			  Near	 _TEXT:010D
PLACE_0030FH			  Near	 _TEXT:010F
PLACE_00310H			  Near	 _TEXT:0110
PLACE_00311H			  Near	 _TEXT:0111
PLACE_00312H			  Near	 _TEXT:0112
PLACE_00313H			  Near	 _TEXT:0113
PLACE_00314H			  Near	 _TEXT:0114
PLACE_00315H			  Near	 _TEXT:0115
PLACE_00318H			  Near	 _TEXT:0118
PLACE_0031AH			  Near	 _TEXT:011A
PLACE_0031CH			  Near	 _TEXT:011C
PLACE_0031DH			  Near	 _TEXT:011D
PLACE_0031EH			  Near	 _TEXT:011E
Turbo Assembler	 Version 4.1	    12/29/24 23:45:51	    Page 33
Symbol Table



PLACE_00321H			  Near	 _TEXT:0121
PLACE_00323H			  Near	 _TEXT:0123
PLACE_00327H			  Near	 _TEXT:0127
PLACE_00329H			  Near	 _TEXT:0129
PLACE_0032BH			  Near	 _TEXT:012B
PLACE_0032FH			  Near	 _TEXT:012F
PLACE_00331H			  Near	 _TEXT:0131
PLACE_00335H			  Near	 _TEXT:0135
PLACE_00337H			  Near	 _TEXT:0137
PLACE_0033BH			  Near	 _TEXT:013B
PLACE_0033DH			  Near	 _TEXT:013D
PLACE_0033FH			  Near	 _TEXT:0140
PLACE_00340H			  Near	 _TEXT:0141
PLACE_00343H			  Near	 _TEXT:0144
PLACE_00344H			  Near	 _TEXT:0145
PLACE_00345H			  Near	 _TEXT:0146
PLACE_00346H			  Near	 _TEXT:0147
PLACE_00347H			  Near	 _TEXT:0148
PLACE_00348H			  Near	 _TEXT:0149
PLACE_00349H			  Near	 _TEXT:014A
PLACE_0034CH			  Near	 _TEXT:014D
PLACE_0034FH			  Near	 _TEXT:0150
PLACE_00352H			  Near	 _TEXT:0153
PLACE_00354H			  Near	 _TEXT:0155
PLACE_00357H			  Near	 _TEXT:0158
PLACE_0035AH			  Near	 _TEXT:015B
PLACE_0035DH			  Near	 _TEXT:015E
PLACE_0035FH			  Near	 _TEXT:0160
PLACE_00362H			  Near	 _TEXT:0163
PLACE_00365H			  Near	 _TEXT:0166
PLACE_00368H			  Near	 _TEXT:0169
PLACE_0036AH			  Near	 _TEXT:016B
PLACE_0036DH			  Near	 _TEXT:016E
PLACE_00370H			  Near	 _TEXT:0171
PLACE_00373H			  Near	 _TEXT:0174
PLACE_00375H			  Near	 _TEXT:0176
PLACE_00378H			  Near	 _TEXT:0179
PLACE_0037BH			  Near	 _TEXT:017C
PLACE_0037EH			  Near	 _TEXT:017F
PLACE_00380H			  Near	 _TEXT:0181
PLACE_00383H			  Near	 _TEXT:0184
PLACE_00386H			  Near	 _TEXT:0187
PLACE_00389H			  Near	 _TEXT:018A
PLACE_0038AH			  Near	 _TEXT:018B
PLACE_0038BH			  Near	 _TEXT:018C
PLACE_0038CH			  Near	 _TEXT:018D
PLACE_0038DH			  Near	 _TEXT:018E
PLACE_0038EH			  Near	 _TEXT:018F
PLACE_0038FH			  Near	 _TEXT:0190
PLACE_00391H			  Near	 _TEXT:0192
PLACE_00393H			  Near	 _TEXT:0194
PLACE_00396H			  Near	 _TEXT:0197
PLACE_00398H			  Near	 _TEXT:0199
PLACE_0039AH			  Near	 _TEXT:019B
PLACE_0039DH			  Near	 _TEXT:019E
PLACE_003A0H			  Near	 _TEXT:01A1
PLACE_003A3H			  Near	 _TEXT:01A4
Turbo Assembler	 Version 4.1	    12/29/24 23:45:51	    Page 34
Symbol Table



PLACE_003A6H			  Near	 _TEXT:01A7
PLACE_003A7H			  Near	 _TEXT:01A8
PLACE_003A8H			  Near	 _TEXT:01A9
PLACE_003A9H			  Near	 _TEXT:01AA
PLACE_003AAH			  Near	 _TEXT:01AB
PLACE_003ADH			  Near	 _TEXT:01AE
PLACE_003AFH			  Near	 _TEXT:01B0
PLACE_003B1H			  Near	 _TEXT:01B2
PLACE_003B2H			  Near	 _TEXT:01B3
PLACE_003B3H			  Near	 _TEXT:01B4
PLACE_003B5H			  Near	 _TEXT:01B6
PLACE_003B6H			  Near	 _TEXT:01B7
PLACE_003B7H			  Near	 _TEXT:01B8
PLACE_003B8H			  Near	 _TEXT:01B9
PLACE_003BBH			  Near	 _TEXT:01BC
PLACE_003BEH			  Near	 _TEXT:01BF
PLACE_003C0H			  Near	 _TEXT:01C1
PLACE_003C2H			  Near	 _TEXT:01C3
PLACE_003C5H			  Near	 _TEXT:01C6
PLACE_003C8H			  Near	 _TEXT:01C9
PLACE_003CBH			  Near	 _TEXT:01CC
PLACE_003CEH			  Near	 _TEXT:01CF
PLACE_003CFH			  Near	 _TEXT:01D0
PLACE_003D0H			  Near	 _TEXT:01D1
PLACE_003D1H			  Near	 _TEXT:01D2
PLACE_003D2H			  Near	 _TEXT:01D3
PLACE_003D3H			  Near	 _TEXT:01D4
PLACE_003D6H			  Near	 _TEXT:01D7
PLACE_003D7H			  Near	 _TEXT:01D8
PLACE_003D8H			  Near	 _TEXT:01D9
PLACE_003D9H			  Near	 _TEXT:01DA
PLACE_003DAH			  Near	 _TEXT:01DB
PLACE_003DDH			  Near	 _TEXT:01DE
PLACE_003DFH			  Near	 _TEXT:01E0
PLACE_003E1H			  Near	 _TEXT:01E2
PLACE_003E4H			  Near	 _TEXT:01E5
PLACE_003E6H			  Near	 _TEXT:01E7
PLACE_003E7H			  Near	 _TEXT:01E8
PLACE_003E8H			  Near	 _TEXT:01E9
PLACE_003EBH			  Near	 _TEXT:01EC
PLACE_003EDH			  Near	 _TEXT:01EE
PLACE_003EFH			  Near	 _TEXT:01F0
PLACE_003F1H			  Near	 _TEXT:01F2
PLACE_003F3H			  Near	 _TEXT:01F4
PLACE_003F5H			  Near	 _TEXT:01F6
PLACE_003F7H			  Near	 _TEXT:01F8
PLACE_003F9H			  Near	 _TEXT:01FA
PLACE_003FBH			  Near	 _TEXT:01FC
PLACE_003FEH			  Near	 _TEXT:01FF
PLACE_00400H			  Near	 _TEXT:0201
PLACE_00402H			  Near	 _TEXT:0203
PLACE_00403H			  Near	 _TEXT:0204
PLACE_00404H			  Near	 _TEXT:0205
PLACE_00406H			  Near	 _TEXT:0207
PLACE_00407H			  Near	 _TEXT:0208
PLACE_00409H			  Near	 _TEXT:020A
PLACE_0040AH			  Near	 _TEXT:020B
Turbo Assembler	 Version 4.1	    12/29/24 23:45:51	    Page 35
Symbol Table



PLACE_0040DH			  Near	 _TEXT:020E
PLACE_0040EH			  Near	 _TEXT:020F
PLACE_0040FH			  Near	 _TEXT:0210
PLACE_00410H			  Near	 _TEXT:0211
PLACE_00411H			  Near	 _TEXT:0212
PLACE_00412H			  Near	 _TEXT:0213
PLACE_00413H			  Near	 _TEXT:0214
PLACE_00415H			  Near	 _TEXT:0216
PLACE_00418H			  Near	 _TEXT:0219
PLACE_0041AH			  Near	 _TEXT:021B
PLACE_0041DH			  Near	 _TEXT:021E
PLACE_0041EH			  Near	 _TEXT:021F
PLACE_00421H			  Near	 _TEXT:0222
PLACE_00423H			  Near	 _TEXT:0224
PLACE_00426H			  Near	 _TEXT:0227
PLACE_00428H			  Near	 _TEXT:0229
PLACE_0042BH			  Near	 _TEXT:022C
PLACE_0042DH			  Near	 _TEXT:022E
PLACE_00430H			  Near	 _TEXT:0231
PLACE_00432H			  Near	 _TEXT:0233
PLACE_00435H			  Near	 _TEXT:0236
PLACE_00437H			  Near	 _TEXT:0238
PLACE_00439H			  Near	 _TEXT:023A
PLACE_0043CH			  Near	 _TEXT:023D
PLACE_0043EH			  Near	 _TEXT:023F
PLACE_00441H			  Near	 _TEXT:0242
PLACE_00443H			  Near	 _TEXT:0244
PLACE_00446H			  Near	 _TEXT:0247
PLACE_00448H			  Near	 _TEXT:0249
PLACE_0044AH			  Near	 _TEXT:024B
PLACE_0044DH			  Near	 _TEXT:024E
PLACE_00450H			  Near	 _TEXT:0251
PLACE_00453H			  Near	 _TEXT:0254
PLACE_00456H			  Near	 _TEXT:0257
PLACE_00459H			  Near	 _TEXT:025A
PLACE_0045CH			  Near	 _TEXT:025D
PLACE_0045EH			  Near	 _TEXT:025F
PLACE_00460H			  Near	 _TEXT:0261
PLACE_00463H			  Near	 _TEXT:0264
PLACE_00466H			  Near	 _TEXT:0267
PLACE_00467H			  Near	 _TEXT:0268
PLACE_00468H			  Near	 _TEXT:0269
PLACE_00469H			  Near	 _TEXT:026A
PLACE_0046AH			  Near	 _TEXT:026B
PLACE_0046BH			  Near	 _TEXT:026C
PLACE_0046CH			  Near	 _TEXT:026D
PLACE_0046DH			  Near	 _TEXT:026E
PLACE_0046EH			  Near	 _TEXT:026F
PLACE_0046FH			  Near	 _TEXT:0270
PLACE_00470H			  Near	 _TEXT:0271
PLACE_00471H			  Near	 _TEXT:0272
PLACE_00475H			  Near	 _TEXT:0276
PLACE_00477H			  Near	 _TEXT:0278
PLACE_00479H			  Near	 _TEXT:027A
PLACE_0047CH			  Near	 _TEXT:027D
PLACE_0047FH			  Near	 _TEXT:0280
PLACE_00482H			  Near	 _TEXT:0283
Turbo Assembler	 Version 4.1	    12/29/24 23:45:51	    Page 36
Symbol Table



PLACE_00485H			  Near	 _TEXT:0286
PLACE_00488H			  Near	 _TEXT:0289
PLACE_0048BH			  Near	 _TEXT:028C
PLACE_0048EH			  Near	 _TEXT:028F
PLACE_00490H			  Near	 _TEXT:0291
PLACE_00493H			  Near	 _TEXT:0294
PLACE_00496H			  Near	 _TEXT:0297
PLACE_00499H			  Near	 _TEXT:029A
PLACE_0049CH			  Near	 _TEXT:029D
PLACE_0049FH			  Near	 _TEXT:02A0
PLACE_004A2H			  Near	 _TEXT:02A3
PLACE_004A5H			  Near	 _TEXT:02A6
PLACE_004A8H			  Near	 _TEXT:02A9
PLACE_004ABH			  Near	 _TEXT:02AC
PLACE_004AEH			  Near	 _TEXT:02AF
PLACE_004B1H			  Near	 _TEXT:02B2
PLACE_004B3H			  Near	 _TEXT:02B4
PLACE_004B7H			  Near	 _TEXT:02B8
PLACE_004BAH			  Near	 _TEXT:02BB
PLACE_004BCH			  Near	 _TEXT:02BD
PLACE_004BEH			  Near	 _TEXT:02BF
PLACE_004C1H			  Near	 _TEXT:02C2
PLACE_004C4H			  Near	 _TEXT:02C5
PLACE_004C7H			  Near	 _TEXT:02C8
PLACE_004C8H			  Near	 _TEXT:02C9
PLACE_004C9H			  Near	 _TEXT:02CA
PLACE_004CAH			  Near	 _TEXT:02CB
PLACE_004CBH			  Near	 _TEXT:02CC
PLACE_004CCH			  Near	 _TEXT:02CD
PLACE_004CDH			  Near	 _TEXT:02CE
PLACE_004CEH			  Near	 _TEXT:02CF
PLACE_004CFH			  Near	 _TEXT:02D0
PLACE_004D0H			  Near	 _TEXT:02D1
PLACE_004D1H			  Near	 _TEXT:02D2
PLACE_004D2H			  Near	 _TEXT:02D3
PLACE_004D3H			  Near	 _TEXT:02D4
PLACE_004D6H			  Near	 _TEXT:02D7
PLACE_004D8H			  Near	 _TEXT:02D9
PLACE_004DBH			  Near	 _TEXT:02DC
PLACE_004DDH			  Near	 _TEXT:02DE
PLACE_004E0H			  Near	 _TEXT:02E1
PLACE_004E3H			  Near	 _TEXT:02E4
PLACE_004E6H			  Near	 _TEXT:02E7
PLACE_004EAH			  Near	 _TEXT:02EB
PLACE_004ECH			  Near	 _TEXT:02ED
PLACE_004EEH			  Near	 _TEXT:02EF
PLACE_004F1H			  Near	 _TEXT:02F2
PLACE_004F2H			  Near	 _TEXT:02F3
PLACE_004F3H			  Near	 _TEXT:02F4
PLACE_004F4H			  Near	 _TEXT:02F5
PLACE_004F5H			  Near	 _TEXT:02F6
PLACE_004F6H			  Near	 _TEXT:02F7
PLACE_004F7H			  Near	 _TEXT:02F8
PLACE_004F8H			  Near	 _TEXT:02F9
PLACE_004F9H			  Near	 _TEXT:02FA
PLACE_004FAH			  Near	 _TEXT:02FB
PLACE_004FBH			  Near	 _TEXT:02FC
Turbo Assembler	 Version 4.1	    12/29/24 23:45:51	    Page 37
Symbol Table



PLACE_004FCH			  Near	 _TEXT:02FD
PLACE_004FEH			  Near	 _TEXT:02FF
PLACE_00500H			  Near	 _TEXT:0301
PLACE_00503H			  Near	 _TEXT:0304
PLACE_00505H			  Near	 _TEXT:0306
PLACE_00508H			  Near	 _TEXT:0309
PLACE_0050AH			  Near	 _TEXT:030B
PLACE_0050DH			  Near	 _TEXT:030E
PLACE_00510H			  Near	 _TEXT:0311
PLACE_00514H			  Near	 _TEXT:0315
PLACE_00516H			  Near	 _TEXT:0317
PLACE_00518H			  Near	 _TEXT:0319
PLACE_0051AH			  Near	 _TEXT:031C
PLACE_0051BH			  Near	 _TEXT:031D
PLACE_0051EH			  Near	 _TEXT:0320
PLACE_00521H			  Near	 _TEXT:0323
PLACE_00522H			  Near	 _TEXT:0324
PLACE_00523H			  Near	 _TEXT:0325
PLACE_00524H			  Near	 _TEXT:0326
PLACE_00525H			  Near	 _TEXT:0327
PLACE_00526H			  Near	 _TEXT:0328
PLACE_00527H			  Near	 _TEXT:0329
PLACE_00528H			  Near	 _TEXT:032A
PLACE_00529H			  Near	 _TEXT:032B
PLACE_0052AH			  Near	 _TEXT:032C
PLACE_0052BH			  Near	 _TEXT:032D
PLACE_0052CH			  Near	 _TEXT:032E
PLACE_0052DH			  Near	 _TEXT:032F
PLACE_0052FH			  Near	 _TEXT:0331
PLACE_00530H			  Near	 _TEXT:0332
PLACE_00534H			  Near	 _TEXT:0336
PLACE_00537H			  Near	 _TEXT:0339
PLACE_00539H			  Near	 _TEXT:033B
PLACE_0053DH			  Near	 _TEXT:033F
PLACE_0053FH			  Near	 _TEXT:0341
PLACE_00540H			  Near	 _TEXT:0342
PLACE_00542H			  Near	 _TEXT:0344
PLACE_00545H			  Near	 _TEXT:0347
PLACE_00547H			  Near	 _TEXT:0349
PLACE_0054AH			  Near	 _TEXT:034C
PLACE_0054DH			  Near	 _TEXT:034F
PLACE_0054FH			  Near	 _TEXT:0351
PLACE_00551H			  Near	 _TEXT:0353
PLACE_00553H			  Near	 _TEXT:0355
PLACE_00555H			  Near	 _TEXT:0357
PLACE_00558H			  Near	 _TEXT:035A
PLACE_0055AH			  Near	 _TEXT:035C
PLACE_0055CH			  Near	 _TEXT:035F
PLACE_0055DH			  Near	 _TEXT:0360
PLACE_0055FH			  Near	 _TEXT:0362
PLACE_00561H			  Near	 _TEXT:0364
PLACE_00564H			  Near	 _TEXT:0367
PLACE_00567H			  Near	 _TEXT:036A
PLACE_0056AH			  Near	 _TEXT:036D
PLACE_0056CH			  Near	 _TEXT:036F
PLACE_0056EH			  Near	 _TEXT:0371
PLACE_00570H			  Near	 _TEXT:0373
Turbo Assembler	 Version 4.1	    12/29/24 23:45:51	    Page 38
Symbol Table



PLACE_00571H			  Near	 _TEXT:0374
PLACE_00572H			  Near	 _TEXT:0375
PLACE_00574H			  Near	 _TEXT:0377
PLACE_00576H			  Near	 _TEXT:0379
PLACE_00578H			  Near	 _TEXT:037B
PLACE_0057BH			  Near	 _TEXT:037E
PLACE_0057DH			  Near	 _TEXT:0380
PLACE_00580H			  Near	 _TEXT:0383
PLACE_00582H			  Near	 _TEXT:0385
PLACE_00584H			  Near	 _TEXT:0387
PLACE_00585H			  Near	 _TEXT:0388
PLACE_00586H			  Near	 _TEXT:0389
PLACE_00587H			  Near	 _TEXT:038A
PLACE_00588H			  Near	 _TEXT:038B
PLACE_00589H			  Near	 _TEXT:038C
PLACE_0058AH			  Near	 _TEXT:038D
PLACE_0058BH			  Near	 _TEXT:038E
PLACE_0058EH			  Near	 _TEXT:0391
PLACE_00591H			  Near	 _TEXT:0394
PLACE_00594H			  Near	 _TEXT:0397
PLACE_00596H			  Near	 _TEXT:0399
PLACE_00599H			  Near	 _TEXT:039C
PLACE_0059CH			  Near	 _TEXT:039F
PLACE_0059FH			  Near	 _TEXT:03A2
PLACE_005A2H			  Near	 _TEXT:03A5
PLACE_005A5H			  Near	 _TEXT:03A8
PLACE_005A8H			  Near	 _TEXT:03AB
PLACE_005AAH			  Near	 _TEXT:03AD
PLACE_005ACH			  Near	 _TEXT:03AF
PLACE_005AEH			  Near	 _TEXT:03B1

Groups & Segments		  Bit Size Align  Combine Class

DGROUP				  Group
  STACK				  16  0100 Para	  Stack	  STACK
  _DATA				  16  0E1D Word	  Public  DATA
_TEXT				  16  03B3 Word	  Public  CODE
